(lp0
VDe
p1
aVenorme
p2
aVbelangstelling
p3
aVdie
p4
aVhet
p5
aVpubliek
p6
aVtoonde
p7
aVvoor
p8
aVwat
p9
aVindertijd
p10
aVbekend
p11
aVstond
p12
aVals
p13
aVde
p14
aVzaak
p15
aVStyles
p16
aVwordt
p17
aVnu
p18
aVminder
p19
aVNiettemin
p20
aVis
p21
aVmij
p22
aVzowel
p23
aVdoor
p24
aVmijn
p25
aVvriend
p26
aVPoirot
p27
aVbetrokken
p28
aVfamilieleden
p29
aVverzocht
p30
aVeen
p31
aVverslag
p32
aVvan
p33
aVhele
p34
aVgebeuren
p35
aVte
p36
aVschrijven
p37
aVgezien
p38
aVfeit
p39
aVdat
p40
aVer
p41
aVin
p42
aVwereld
p43
aVgrote
p44
aVruchtbaarheid
p45
aVaan
p46
aVgegeven
p47
aVOp
p48
aVdeze
p49
aVmanier
p50
aVhopen
p51
aVwe
p52
aVvoorgoed
p53
aVeinde
p54
aVmaken
p55
aVsensationele
p56
aVgeruchten
p57
aVnog
p58
aVsteeds
p59
aVronde
p60
aVdoen
p61
aVIk
p62
aVzal
p63
aVdaarom
p64
aVkort
p65
aVomstandigheden
p66
aVuiteenzetten
p67
aVertoe
p68
aVgeleid
p69
aVhebben
p70
aVik
p71
aVbij
p72
aVraakte
p73
aVwas
p74
aVgewond
p75
aVfront
p76
aVnaar
p77
aVhuis
p78
aVgestuurd
p79
aVen
p80
aVnadat
p81
aVenige
p82
aVmaanden
p83
aVhad
p84
aVdoorgebracht
p85
aVnogal
p86
aVdeprimerend
p87
aVherstellingsoord
p88
aVkreeg
p89
aVmaand
p90
aVziekteverlof
p91
aVAangezien
p92
aVgeen
p93
aVnaaste
p94
aVfamilie
p95
aVof
p96
aVvrienden
p97
aVheb
p98
aVoverleggen
p99
aVzou
p100
aVgaan
p101
aVtoen
p102
aVJohn
p103
aVCavendish
p104
aVtegen
p105
aVt
p106
aVlijf
p107
aVliep
p108
aVhem
p109
aVlaatste
p110
aVjaren
p111
aVweinig
p112
aVEigenlijk
p113
aVnooit
p114
aVgoed
p115
aVgekend
p116
aVIn
p117
aVeerste
p118
aVplaats
p119
aVhij
p120
aVruim
p121
aVvijftien
p122
aVjaar
p123
aVouder
p124
aVdan
p125
aVhoewel
p126
aVje
p127
aVzijn
p128
aVvijfenveertig
p129
aVnauwelijks
p130
aVaanzag
p131
aVMaar
p132
aVjongen
p133
aVdikwijls
p134
aVgelogeerd
p135
aVop
p136
aVlandgoed
p137
aVmoeder
p138
aVEssex
p139
aVWe
p140
aVpraatten
p141
aVtijd
p142
aVover
p143
aVvroeger
p144
aVeind
p145
aVliedje
p146
aVuitnodigde
p147
aVverlof
p148
aVbrengen
p149
aVMoeder
p150
aVerg
p151
aVleuk
p152
aVvinden
p153
aVweer
p154
aVeens
p155
aVal
p156
aVvoegde
p157
aVeraan
p158
aVtoe
p159
aVIs
p160
aVmet
p161
aVOch
p162
aVjawel
p163
aVJe
p164
aVweet
p165
aVze
p166
aVhertrouwd
p167
aVvrees
p168
aVverbazing
p169
aVduidelijk
p170
aVliet
p171
aVblijken
p172
aVMevrouw
p173
aVJohns
p174
aVvader
p175
aVtrouwde
p176
aVweduwnaar
p177
aVtwee
p178
aVzoons
p179
aVherinnering
p180
aVknappe
p181
aVvrouw
p182
aVmiddelbare
p183
aVleeftijd
p184
aVZe
p185
aVmoest
p186
aVminst
p187
aVzeventig
p188
aVherinnerde
p189
aVme
p190
aVhaar
p191
aVenergieke
p192
aVdominerende
p193
aVpersoonlijkheid
p194
aVzich
p195
aVook
p196
aVliefdadig
p197
aVmaatschappelijk
p198
aVterrein
p199
aVgelden
p200
aVgraag
p201
aVbazaars
p202
aVopende
p203
aVweldoenster
p204
aVspeelde
p205
aVvrijgevig
p206
aVbezat
p207
aVaanzienlijk
p208
aVeigen
p209
aVvermogen
p210
aVbegin
p211
aVhun
p212
aVtrouwen
p213
aVbuitenhuis
p214
aVCourt
p215
aVgekocht
p216
aVHij
p217
aVzo
p218
aVgeheel
p219
aVonder
p220
aVinvloed
p221
aVdood
p222
aVnaliet
p223
aVduur
p224
aVleven
p225
aVevenals
p226
aVgrootste
p227
aVdeel
p228
aVkapitaal
p229
aVschikking
p230
aVuitgesproken
p231
aVoneerlijk
p232
aVten
p233
aVopzichte
p234
aVstiefmoeder
p235
aVecht
p236
aVwel
p237
aVgezorgd
p238
aVniets
p239
aVtekort
p240
aVkwamen
p241
aVzij
p242
aVwaren
p243
aVtrouwens
p244
aVjong
p245
aVhertrouwde
p246
aVbeschouwden
p247
aVLawrence
p248
aVjongste
p249
aVkind
p250
aVgezondheid
p251
aVgesukkeld
p252
aVarts
p253
aVgeworden
p254
aVmaar
p255
aVspoedig
p256
aVwoonde
p257
aVthuis
p258
aVletterkundige
p259
aVaspiraties
p260
aVgedichten
p261
aVhadden
p262
aVechter
p263
aVenig
p264
aVnoemenswaardig
p265
aVsucces
p266
aVadvocaat
p267
aVgeweest
p268
aVuiteindelijk
p269
aVgekozen
p270
aVlandjonker
p271
aVTwee
p272
aVgeleden
p273
aVgetrouwd
p274
aVkomen
p275
aVwonen
p276
aVstil
p277
aVvermoeden
p278
aVliever
p279
aVgrotere
p280
aVtoelage
p281
aVgehad
p282
aVstaat
p283
aVstellen
p284
aVzichzelf
p285
aVmevrouw
p286
aViemand
p287
aVzin
p288
aVdeed
p289
aVandere
p290
aVmensen
p291
aVverlangde
p292
aVernaar
p293
aVschikten
p294
aVdit
p295
aVgeval
p296
aVhield
p297
aVzeker
p298
aVtouwtjes
p299
aVhanden
p300
aVnamelijk
p301
aVkoorden
p302
aVbeurs
p303
aVzag
p304
aVnieuws
p305
aVmoeders
p306
aVhuwelijk
p307
aVglimlachte
p308
aVwrang
p309
aVEn
p310
aVmisselijke
p311
aVvent
p312
aVzei
p313
aVgrimmig
p314
aVmag
p315
aVbest
p316
aVweten
p317
aVHastings
p318
aVons
p319
aVbehoorlijk
p320
aVverpest
p321
aVWat
p322
aVEvie
p323
aVbetreft
p324
aVherinner
p325
aVNee
p326
aVO
p327
aVna
p328
aVjouw
p329
aVdenk
p330
aVmas
p331
aVfactotum
p332
aVgezelschapsdame
p333
aVnou
p334
aVja
p335
aVzon
p336
aVbeetje
p337
aVmanusje
p338
aValles
p339
aVEen
p340
aVflink
p341
aVbeste
p342
aVNou
p343
aVniet
p344
aVdirect
p345
aVknap
p346
aVeentje
p347
aVwaar
p348
aVkunt
p349
aVwou
p350
aVeigenlijk
p351
aVzeggen
p352
aVkwam
p353
aVuit
p354
aVopdagen
p355
aVsmoesje
p356
aVachterneef
p357
aVzoiets
p358
aVgesteld
p359
aVleek
p360
aVverwantschap
p361
aVerkennen
p362
aVIedereen
p363
aVkan
p364
aVzien
p365
aVhelemaal
p366
aVtoon
p367
aVvalt
p368
aVheeft
p369
aVpikzwarte
p370
aVbaard
p371
aVdraagt
p372
aVlakschoenen
p373
aVma
p374
aVmeteen
p375
aVheel
p376
aVveel
p377
aVnam
p378
aVdienst
p379
aVtoch
p380
aValtijd
p381
aVhonderd
p382
aVverenigingen
p383
aVleidde
p384
aVknikte
p385
aVDoor
p386
aVoorlog
p387
aVhonderden
p388
aVduizenden
p389
aVGeen
p390
aVwonder
p391
aVkerel
p392
aVpas
p393
aVsnapt
p394
aVklap
p395
aVgezicht
p396
aVdrie
p397
aVplotseling
p398
aVaankondigde
p399
aVAlfred
p400
aVverloofd
p401
aVDie
p402
aVminstens
p403
aVtwintig
p404
aVjonger
p405
aVgewoon
p406
aVonbeschaamde
p407
aVfortuinzoeker
p408
aVwil
p409
aVbaas
p410
aVHet
p411
aVmoet
p412
aVjullie
p413
aVmoeilijke
p414
aVsituatie
p415
aVMoeilijk
p416
aVonmogelijke
p417
aVZo
p418
aVdagen
p419
aVlater
p420
aVtrein
p421
aVstapte
p422
aVSt
p423
aVMary
p424
aVbelachelijk
p425
aVklein
p426
aVstationnetje
p427
aVzonder
p428
aVduidelijke
p429
aVbestaansgrond
p430
aVgelegen
p431
aVtemidden
p432
aVgroene
p433
aVvelden
p434
aVlandweggetjes
p435
aVperron
p436
aVwachten
p437
aVbracht
p438
aVauto
p439
aVpaar
p440
aVdruppels
p441
aVbenzine
p442
aVDat
p443
aVvoornamelijk
p444
aVdanken
p445
aVactiviteiten
p446
aVdorp
p447
aVlag
p448
aVongeveer
p449
aVkilometer
p450
aVkant
p451
aVrustige
p452
aVwarme
p453
aVdag
p454
aVjuli
p455
aVAls
p456
aVdaar
p457
aVvlakke
p458
aVland
p459
aVgroen
p460
aVvredig
p461
aVliggen
p462
aVmiddagzon
p463
aVbijna
p464
aVonmogelijk
p465
aVgeloven
p466
aVver
p467
aVweg
p468
aVonafwendbaar
p469
aVwereldoorlog
p470
aVvoort
p471
aVwoedde
p472
aVgevoel
p473
aVterechtgekomen
p474
aVToen
p475
aVhek
p476
aVportierswoning
p477
aVben
p478
aVbang
p479
aVhier
p480
aVzult
p481
aVBeste
p482
aVjuist
p483
aVnodig
p484
aVinderdaad
p485
aVplezierig
p486
aVbent
p487
aVrustig
p488
aVleventje
p489
aVTweemaal
p490
aVper
p491
aVweek
p492
aVoefen
p493
aVvrijwilligers
p494
aVhelp
p495
aVsoms
p496
aVhandje
p497
aVboerderijen
p498
aVMijn
p499
aVwerkt
p500
aVgeregeld
p501
aVIedere
p502
aVmorgen
p503
aVom
p504
aVvijf
p505
aVuur
p506
aVmelken
p507
aVdaarna
p508
aVstuk
p509
aVtot
p510
aVlunch
p511
aVbank
p512
aVgenomen
p513
aVPlotseling
p514
aVremde
p515
aVeven
p516
aVaf
p517
aVkeek
p518
aVhorloge
p519
aVvraag
p520
aVCynthia
p521
aVhalen
p522
aVonderweg
p523
aVziekenhuis
p524
aVdochter
p525
aVvroegere
p526
aVschoolvriendin
p527
aVlouche
p528
aVverongelukte
p529
aVmeisje
p530
aVbleef
p531
aVwees
p532
aVcent
p533
aVachter
p534
aVhulp
p535
aVtien
p536
aVhiervandaan
p537
aVTerwijl
p538
aVwoorden
p539
aVhielden
p540
aVmooie
p541
aVoude
p542
aVrok
p543
aVstevig
p544
aVtweed
p545
aVgebogen
p546
aVbloembed
p547
aVrichtte
p548
aVwij
p549
aVdichterbij
p550
aVHallo
p551
aVonze
p552
aVgewonde
p553
aVheld
p554
aVMeneer
p555
aVHoward
p556
aVJuffrouw
p557
aVdrukte
p558
aVhand
p559
aVhaast
p560
aVpijn
p561
aVindruk
p562
aVbuitengewoon
p563
aVblauwe
p564
aVogen
p565
aVgebruind
p566
aVonaardige
p567
aVveertig
p568
aVlage
p569
aVstem
p570
aVdiepe
p571
aVtonen
p572
aVman
p573
aVgroot
p574
aVfors
p575
aVvoeten
p576
aVnavenant
p577
aVgestoken
p578
aVstevige
p579
aVschoenen
p580
aVmerkte
p581
aVgauw
p582
aVmeestal
p583
aVtelegramstijl
p584
aVsprak
p585
aVOnkruid
p586
aVtiert
p587
aVwelig
p588
aVKan
p589
aVbijhouden
p590
aVZal
p591
aVu
p592
aVwerk
p593
aVzetten
p594
aVPas
p595
aValleen
p596
aVheerlijk
p597
aVmezelf
p598
aVnuttig
p599
aVantwoordde
p600
aVZeg
p601
aVWordt
p602
aVgewaardeerd
p603
aVLater
p604
aVspijt
p605
aVcynisch
p606
aVlachend
p607
aVWaar
p608
aVdrinken
p609
aVthee
p610
aVvandaag
p611
aVbinnen
p612
aVbuiten
p613
aVBuiten
p614
aVVeel
p615
aVmooi
p616
aVopgesloten
p617
aVzitten
p618
aVGa
p619
aVmee
p620
aVhebt
p621
aVgenoeg
p622
aVtuin
p623
aVgedaan
p624
aVarbeider
p625
aVloon
p626
aVwaard
p627
aVzoals
p628
aVlaat
p629
aVlaven
p630
aVVoel
p631
aViets
p632
aVterwijl
p633
aVtuinhandschoenen
p634
aVuittrok
p635
aVging
p636
aVheen
p637
aVplek
p638
aVklaarstond
p639
aVschaduw
p640
aVesdoorn
p641
aVUit
p642
aVrieten
p643
aVstoelen
p644
aVpassen
p645
aVtegemoet
p646
aVvergeten
p647
aVHaar
p648
aVlange
p649
aVslanke
p650
aVfiguur
p651
aVscherp
p652
aVafgetekend
p653
aVheldere
p654
aVlicht
p655
aVsterke
p656
aVsluimerend
p657
aVvuur
p658
aVuitdrukking
p659
aVscheen
p660
aVprachtige
p661
aVopmerkelijke
p662
aVvolmaakt
p663
aVbeheerst
p664
aVgaf
p665
aVwilde
p666
aVontembare
p667
aVgeest
p668
aVuitzonderlijk
p669
aVgedisciplineerd
p670
aVgeheugen
p671
aVgegrift
p672
aVbegroette
p673
aVvriendelijke
p674
aVzachte
p675
aVuitermate
p676
aVtevreden
p677
aVuitnodiging
p678
aVaangenomen
p679
aVstoel
p680
aVneer
p681
aVkopje
p682
aVmaakte
p683
aVopmerkingen
p684
aValle
p685
aVopzichten
p686
aVfascinerende
p687
aVversterkten
p688
aVIemand
p689
aVaandachtig
p690
aVluisteren
p691
aVstimulerend
p692
aVbeschreef
p693
aVhumoristische
p694
aVwijze
p695
aVvoorvallen
p696
aVvlei
p697
aVgedachte
p698
aVdaardoor
p699
aVgastvrouw
p700
aVprettig
p701
aVbezighield
p702
aVWant
p703
aVaardige
p704
aVmoeilijk
p705
aVbriljant
p706
aVnoemen
p707
aVmoment
p708
aVklonk
p709
aVbekende
p710
aVopenstaande
p711
aVtuindeuren
p712
aVvlakbij
p713
aVJij
p714
aVschrijft
p715
aVdus
p716
aVPrinses
p717
aVzelf
p718
aVLady
p719
aVtweede
p720
aVOf
p721
aVzullen
p722
aVdaarmee
p723
aVantwoord
p724
aVVoor
p725
aVweigeren
p726
aVopenen
p727
aVCrosbie
p728
aVDan
p729
aVschoolfeest
p730
aVhoorde
p731
aVmannenstem
p732
aVmompelen
p733
aVluider
p734
aVJa
p735
aVnatuurlijk
p736
aVattent
p737
aVdeuren
p738
aVgingen
p739
aVverder
p740
aVopen
p741
aVdame
p742
aVgrijs
p743
aVgrasveld
p744
aVgelaatstrekken
p745
aVnatuur
p746
aVZij
p747
aVwerd
p748
aVgevolgd
p749
aVwekte
p750
aVeerbiedige
p751
aVonderdanigheid
p752
aVhartelijk
p753
aVvind
p754
aVfijn
p755
aVmeneer
p756
aVliefste
p757
aVnieuwsgierig
p758
aVvreemde
p759
aVeend
p760
aVbijt
p761
aVverbaasde
p762
aVhadIk
p763
aVzwarte
p764
aVdroeg
p765
aVgoudgerande
p766
aVmerkwaardig
p767
aVonbewogen
p768
aVuiterlijk
p769
aVtrof
p770
aVlijken
p771
aVtoneel
p772
aVwerkelijke
p773
aVzware
p774
aVzalvende
p775
aVkrachteloze
p776
aVAangenaam
p777
aVDaarna
p778
aVwendde
p779
aVEmily
p780
aVliefje
p781
aVgeloof
p782
aVkussen
p783
aVvochtig
p784
aVander
p785
aVlegde
p786
aVvertoon
p787
aVtederste
p788
aVzorg
p789
aVinnige
p790
aVblik
p791
aVverliefdheid
p792
aVoverigens
p793
aVverstandige
p794
aVaanwezigheid
p795
aVgezelschap
p796
aVsfeer
p797
aVverborgen
p798
aVvijandigheid
p799
aVscheppen
p800
aVVooral
p801
aVjuffrouw
p802
aVminste
p803
aVmoeite
p804
aVgevoelens
p805
aVverbergen
p806
aVongewoons
p807
aVrad
p808
aVtong
p809
aVkomende
p810
aVbazaar
p811
aVbezig
p812
aVorganiseren
p813
aVgehouden
p814
aVworden
p815
aVbepaalde
p816
aVdata
p817
aVEr
p818
aVverandering
p819
aVoplettende
p820
aVvoorkomende
p821
aVhouding
p822
aVVan
p823
aVogenblik
p824
aVingewortelde
p825
aVhekel
p826
aVmijzelf
p827
aVindrukken
p828
aVtamelijk
p829
aVEvelyn
p830
aVenkele
p831
aVinstructies
p832
aVbrieven
p833
aVwoord
p834
aVprecieze
p835
aVBent
p836
aVmilitair
p837
aVberoep
p838
aVwerkte
p839
aVLloyds
p840
aVplan
p841
aVwerken
p842
aVMisschien
p843
aVmisschien
p844
aVga
p845
aVanders
p846
aVleunde
p847
aVvoren
p848
aVmocht
p849
aVkiezen
p850
aVligt
p851
aVheimelijke
p852
aVwensen
p853
aVvroeg
p854
aVVertelt
p855
aVvoorkeur
p856
aVuitlachen
p857
aVwens
p858
aVgekoesterd
p859
aVdetective
p860
aVechte
p861
aVScotland
p862
aVYard
p863
aVSherlock
p864
aVHolmes
p865
aVelk
p866
aVserieus
p867
aVtrekt
p868
aVontzettend
p869
aVBelgie
p870
aVontmoet
p871
aVberoemd
p872
aVwild
p873
aVenthousiast
p874
aVgemaakt
p875
aVfantastisch
p876
aVmannetje
p877
aVplacht
p878
aVgoede
p879
aVspeurwerk
p880
aVzuiver
p881
aVkwestie
p882
aVmethode
p883
aVDaar
p884
aVsysteem
p885
aVgebaseerd
p886
aVgrappig
p887
aVdandy
p888
aVpienter
p889
aVHoud
p890
aVheleboel
p891
aVonzin
p892
aVgeschreven
p893
aVhoofdstuk
p894
aVmisdadiger
p895
aVontdekt
p896
aVstomheid
p897
aVgeslagen
p898
aVEchte
p899
aVonmiddellijk
p900
aVmisdaden
p901
aVopgelost
p902
aVbetoogde
p903
aVBedoel
p904
aVpolitie
p905
aVnauwst
p906
aVkun
p907
aVmakkelijk
p908
aVmisleiden
p909
aVzouden
p910
aVDus
p911
aVgrap
p912
aVdenkt
p913
aVraken
p914
aVmisdaad
p915
aVlaten
p916
aVmoord
p917
aVgaten
p918
aVwie
p919
aVmoordenaar
p920
aVNatuurlijk
p921
aVZou
p922
aVstel
p923
aVjuristen
p924
aVbewijzen
p925
aVvast
p926
aVvoelen
p927
aVmn
p928
aVbuurt
p929
aVkunnen
p930
aVopperde
p931
aVdaad
p932
aVgeweld
p933
aVAssocieer
p934
aVmeer
p935
aVNiet
p936
aVvergiftiging
p937
aVschrikken
p938
aVDokter
p939
aVgisteren
p940
aVgevolg
p941
aVmedische
p942
aVgebruikelijke
p943
aVvergiften
p944
aVwaarschijnlijk
p945
aVontelbare
p946
aVgevallen
p947
aVzelfs
p948
aVbestond
p949
aVgesprek
p950
aVriep
p951
aValsof
p952
aVgraf
p953
aVloopt
p954
aVuniform
p955
aVvrijwillige
p956
aVsnel
p957
aVgrasland
p958
aVaanlopen
p959
aVDit
p960
aVMurdoch
p961
aVlevendig
p962
aVpersoontje
p963
aVfris
p964
aVgezichtje
p965
aVrukte
p966
aVbewonderde
p967
aVgolvende
p968
aVkastanjebruine
p969
aVkleine
p970
aVblanke
p971
aVwaarmee
p972
aVaannam
p973
aVMet
p974
aVdonkere
p975
aVwimpers
p976
aVschoonheid
p977
aVnaast
p978
aVgras
p979
aVvallen
p980
aVglimlachend
p981
aVschaal
p982
aVsandwiches
p983
aVKom
p984
aVzit
p985
aVzoveel
p986
aVprettiger
p987
aVGehoorzaam
p988
aVzakken
p989
aVWerkt
p990
aVTot
p991
aVTiranniseren
p992
aVglimlach
p993
aVmoeten
p994
aVproberen
p995
aVverontwaardigd
p996
aVnichtje
p997
aVverpleging
p998
aVvoorU
p999
aVidee
p1000
aVgelukkig
p1001
aVverpleegster
p1002
aVapotheek
p1003
aVHoeveel
p1004
aVvergiftigt
p1005
aVlachte
p1006
aVbriefjes
p1007
aVwillen
p1008
aVtante
p1009
aVsprong
p1010
aVovereind
p1011
aVafhankelijke
p1012
aVpositie
p1013
aVinnam
p1014
aVhoe
p1015
aVvriendelijk
p1016
aVdoorgaans
p1017
aVuw
p1018
aVkamer
p1019
aVwijzen
p1020
aVsouperen
p1021
aVvanavond
p1022
aVhalf
p1023
aVacht
p1024
aVdineren
p1025
aVafgeschaft
p1026
aVLagerhuislid
p1027
aVwijlen
p1028
aVLord
p1029
aVvoorbeeld
p1030
aVgeven
p1031
aVbezuinigen
p1032
aVgaat
p1033
aVstukjes
p1034
aVpapier
p1035
aVopgespaard
p1036
aVweggestuurd
p1037
aVbijzonder
p1038
aVkon
p1039
aVwaarderen
p1040
aVbrede
p1041
aVtrap
p1042
aVhalverwege
p1043
aVsplitste
p1044
aVverschillende
p1045
aVvleugels
p1046
aVgebouw
p1047
aVlinkervleugel
p1048
aVuitzicht
p1049
aVpark
p1050
aVminuten
p1051
aVvanuit
p1052
aVraam
p1053
aVlangzaam
p1054
aVlopen
p1055
aVarm
p1056
aVongeduldige
p1057
aVschrok
p1058
aVrende
p1059
aVterug
p1060
aVhetzelfde
p1061
aVboom
p1062
aVvoorschijn
p1063
aVdezelfde
p1064
aVrichting
p1065
aVdonker
p1066
aVdroefgeestig
p1067
aVgladgeschoren
p1068
aVprooi
p1069
aVheftige
p1070
aVemotie
p1071
aVvoorbijgaan
p1072
aVherkende
p1073
aVelkaar
p1074
aVveranderd
p1075
aVjongere
p1076
aVbroer
p1077
aVoorzaak
p1078
aVzette
p1079
aVgedachten
p1080
aVbegon
p1081
aVoverpeinzen
p1082
aVavond
p1083
aVverliep
p1084
aVs
p1085
aVnachts
p1086
aVdroomde
p1087
aVraadselachtige
p1088
aVvolgende
p1089
aVhelder
p1090
aVzonnig
p1091
aVverheugde
p1092
aVprettige
p1093
aVhoopte
p1094
aVwandeling
p1095
aVzwierven
p1096
aVverrukkelijke
p1097
aVmiddag
p1098
aVbossen
p1099
aVkeerden
p1100
aVhal
p1101
aVinkwamen
p1102
aVbeiden
p1103
aVrooksalon
p1104
aVvervelends
p1105
aVgebeurd
p1106
aVsloot
p1107
aVdeur
p1108
aVdonderen
p1109
aVruzie
p1110
aVWeg
p1111
aVsomber
p1112
aVeno
p1113
aVlippen
p1114
aVstijf
p1115
aVopeengeklemd
p1116
aVkoffertje
p1117
aVopgewonden
p1118
aVvastberaden
p1119
aVdefensief
p1120
aVieder
p1121
aVgezegd
p1122
aVhart
p1123
aVbarstte
p1124
aVlos
p1125
aVLieve
p1126
aVdegelijk
p1127
aVdingen
p1128
aVverteld
p1129
aVvergeven
p1130
aVschelen
p1131
aVdoorgedrongen
p1132
aVHoewel
p1133
aVlangs
p1134
aVdr
p1135
aVkouwe
p1136
aVkleren
p1137
aVafglijden
p1138
aVronduit
p1139
aVoud
p1140
aVgekker
p1141
aVjij
p1142
aVhoeft
p1143
aVillusies
p1144
aVreden
p1145
aVwaarom
p1146
aVOm
p1147
aVgeld
p1148
aVGeef
p1149
aVBoer
p1150
aVvrouwtje
p1151
aVVraag
p1152
aVlieve
p1153
aVhoeveel
p1154
aVdoorbrengt
p1155
aVrazend
p1156
aVwaarschuwen
p1157
aVwilt
p1158
aVjou
p1159
aVnet
p1160
aVlief
p1161
aVbed
p1162
aVvermoorden
p1163
aVdeugt
p1164
aVboekdelen
p1165
aVgemene
p1166
aVlaster
p1167
aVleugens
p1168
aVbeschuldigen
p1169
aVHoe
p1170
aVeerder
p1171
aVverlaten
p1172
aVbeter
p1173
aVNu
p1174
aVkonden
p1175
aVaanstaren
p1176
aVTenslotte
p1177
aVstap
p1178
aVkijken
p1179
aVZijn
p1180
aVvolgde
p1181
aVZodra
p1182
aVveranderde
p1183
aVboog
p1184
aVeerlijk
p1185
aVvertrouwen
p1186
aVverraste
p1187
aVgefluister
p1188
aVdalen
p1189
aVArme
p1190
aVtroep
p1191
aVheus
p1192
aVpraat
p1193
aVallemaal
p1194
aVgrond
p1195
aVkrijgen
p1196
aVgeprobeerd
p1197
aVmogelijk
p1198
aVbeschermen
p1199
aVmisbruik
p1200
aVgoedheid
p1201
aVoverspannen
p1202
aVonderbrak
p1203
aVhandgebaar
p1204
aVGeloof
p1205
aVjongeman
p1206
aVlanger
p1207
aVrondgekeken
p1208
aVAlles
p1209
aVkost
p1210
aVbedoel
p1211
aVhoorden
p1212
aVgeluid
p1213
aVdeurknop
p1214
aVschouder
p1215
aVnadruk
p1216
aVhoud
p1217
aVvooral
p1218
aVellendeling
p1219
aVmiddelpunt
p1220
aVkoor
p1221
aVwelgemeende
p1222
aVprotesten
p1223
aVafscheidswoorden
p1224
aVwegreed
p1225
aVgroep
p1226
aVstak
p1227
aVoprijlaan
p1228
aVkennelijk
p1229
aVkleur
p1230
aVWie
p1231
aVwant
p1232
aVinstinctief
p1233
aVwantrouwde
p1234
aVdokter
p1235
aVkortaf
p1236
aVlogeert
p1237
aVrustkuur
p1238
aVernstige
p1239
aVzenuwinzinking
p1240
aVspecialist
p1241
aVLonden
p1242
aVpientere
p1243
aVexperts
p1244
aVgebied
p1245
aVgoeie
p1246
aVflapte
p1247
aVeruit
p1248
aVfronste
p1249
aVvoorhoofd
p1250
aVeindje
p1251
aVnare
p1252
aVblad
p1253
aVmond
p1254
aVEngeland
p1255
aVniemand
p1256
aVfideel
p1257
aVpad
p1258
aVnieuwe
p1259
aVaanplant
p1260
aVliepen
p1261
aVene
p1262
aVNet
p1263
aVhekken
p1264
aVinliepen
p1265
aVzigeunerachtig
p1266
aVtegenovergestelde
p1267
aVwaarderend
p1268
aVPrecies
p1269
aVonnodig
p1270
aVdacht
p1271
aVgrijze
p1272
aVlevendige
p1273
aVondeugende
p1274
aVwaarop
p1275
aVdaarstraks
p1276
aVverschenen
p1277
aVvaag
p1278
aVangstig
p1279
aVvoorgevoel
p1280
aVnaderend
p1281
aVonheil
p1282
aVwerkelijk
p1283
aVprachtig
p1284
aVEens
p1285
aVrechtens
p1286
aVtestament
p1287
aVverdraaid
p1288
aVkrap
p1289
aVZit
p1290
aVgeldnood
p1291
aVhelpen
p1292
aViedere
p1293
aVgespendeerd
p1294
aVuitgeven
p1295
aVluxe
p1296
aVbandjes
p1297
aVzwart
p1298
aVzaad
p1299
aVreusachtig
p1300
aVTenminste
p1301
aVSinds
p1302
aVbrak
p1303
aVeerst
p1304
aVvoelde
p1305
aVtegelijk
p1306
aVondefinieerbaars
p1307
aVverdwenen
p1308
aVveiligheid
p1309
aVgegarandeerd
p1310
aVwantrouwen
p1311
aVgekomen
p1312
aVsinistere
p1313
aVdoemde
p1314
aVonaangenaam
p1315
aViedereen
p1316
aVGedurende
p1317
aVVijf
p1318
aVaangekomen
p1319
aVkom
p1320
aV16e
p1321
aV17e
p1322
aVTerwille
p1323
aVlezer
p1324
aVgebeurtenissen
p1325
aVnauwkeurig
p1326
aVsamenvatten
p1327
aVwerden
p1328
aVproces
p1329
aVgebracht
p1330
aVeindeloze
p1331
aVsaaie
p1332
aVkruisverhoren
p1333
aVHowards
p1334
aVvertrek
p1335
aVbrief
p1336
aVwaarin
p1337
aVschreef
p1338
aVafstand
p1339
aVzodra
p1340
aVkennen
p1341
aVbijleggen
p1342
aVbuitengewone
p1343
aVmijns
p1344
aVinziens
p1345
aVonverklaarbare
p1346
aVwierp
p1347
aVvoorstellen
p1348
aVnodigde
p1349
aVvaak
p1350
aVtochten
p1351
aVbekennen
p1352
aVabsoluut
p1353
aVbegrijpen
p1354
aVaantrok
p1355
aVmaandag
p1356
aVvol
p1357
aVverwarring
p1358
aVZaterdags
p1359
aVberoemde
p1360
aVverband
p1361
aVhiermee
p1362
aVliefdadigheidsfeest
p1363
aVvoordragen
p1364
aVdruk
p1365
aVorde
p1366
aVversieren
p1367
aVdorpshuis
p1368
aVfeest
p1369
aVlunchten
p1370
aVbrachten
p1371
aVrest
p1372
aVluierend
p1373
aVviel
p1374
aVrusteloos
p1375
aVNa
p1376
aVpoosje
p1377
aVrusten
p1378
aVomdat
p1379
aVvermoeiende
p1380
aVboeg
p1381
aVdaagde
p1382
aVpartijtje
p1383
aVtennis
p1384
aVkwart
p1385
aVzeven
p1386
aVmoesten
p1387
aVopschieten
p1388
aVnippertje
p1389
aVtafel
p1390
aVvoordat
p1391
aVklaar
p1392
aVeten
p1393
aVvoordracht
p1394
aVenorm
p1395
aVapplaus
p1396
aVwaaraan
p1397
aVmeedeed
p1398
aVuitgenodigd
p1399
aVlogeren
p1400
aVopgetreden
p1401
aVontbijten
p1402
aVoververmoeid
p1403
aVverscheen
p1404
aVkwiek
p1405
aVsleepte
p1406
aVzuster
p1407
aVWillem
p1408
aVoudste
p1409
aVgeslachten
p1410
aVverontschuldigd
p1411
aVafspraak
p1412
aVweggaan
p1413
aVstelde
p1414
aVterugrijden
p1415
aVzoeken
p1416
aVvond
p1417
aVuitstekend
p1418
aVafzetten
p1419
aVdoorrijden
p1420
aVpony
p1421
aVwagen
p1422
aVWij
p1423
aVportier
p1424
aVverdachte
p1425
aVindividuen
p1426
aVvastgehouden
p1427
aVtotdat
p1428
aVontfermde
p1429
aVwitte
p1430
aVheiligdom
p1431
aVcollega
p1432
aVontzag
p1433
aVinboezemde
p1434
aVvrolijk
p1435
aVSpriet
p1436
aVaangesproken
p1437
aVflessen
p1438
aVkamertje
p1439
aVWeet
p1440
aVerin
p1441
aVoriginelers
p1442
aVzuchtte
p1443
aVbinnenkomt
p1444
aVuitzondering
p1445
aVzegt
p1446
aVdenken
p1447
aVprijs
p1448
aVreiken
p1449
aVvergiftigd
p1450
aVLachend
p1451
aVwisten
p1452
aVgriezelig
p1453
aVgemakkelijk
p1454
aVongeluk
p1455
aVvergiftigen
p1456
aVgrapjes
p1457
aVtheedrinken
p1458
aVallerlei
p1459
aVgeheime
p1460
aVvoorraden
p1461
aVkast
p1462
aVdronken
p1463
aVgezellig
p1464
aVhielpen
p1465
aVafwas
p1466
aVtheelepeltje
p1467
aVopgeborgen
p1468
aVgeklopt
p1469
aVtrokken
p1470
aVgezichten
p1471
aVprompt
p1472
aVstrakke
p1473
aVplooi
p1474
aVBinnen
p1475
aVbits
p1476
aVjonge
p1477
aVverschrikt
p1478
aVkijkende
p1479
aVflesje
p1480
aVverwees
p1481
aVietwat
p1482
aVopmerking
p1483
aVbekeek
p1484
aVrechter
p1485
aVvanmorgen
p1486
aVregels
p1487
aVlezen
p1488
aVGezien
p1489
aVverpleegstertje
p1490
aVmoed
p1491
aVopbrengen
p1492
aVboodschap
p1493
aVletterlijk
p1494
aVgevreesde
p1495
aVbesloot
p1496
aVminzaam
p1497
aVzustertje
p1498
aVverdween
p1499
aVstopfles
p1500
aVplank
p1501
aVvulde
p1502
aVschoot
p1503
aVlach
p1504
aVgehandhaafd
p1505
aVblijven
p1506
aVbalkonnetje
p1507
aVVandaar
p1508
aVvriendin
p1509
aVafdelingen
p1510
aVachtergebleven
p1511
aVhouden
p1512
aVGoed
p1513
aVsluiten
p1514
aVleren
p1515
aVVergeleken
p1516
aVhoogte
p1517
aVzowat
p1518
aVdoordat
p1519
aVverlegen
p1520
aVToch
p1521
aVzekere
p1522
aVcharme
p1523
aVdegenen
p1524
aVkenden
p1525
aVmochten
p1526
aVtegenover
p1527
aVgeforceerd
p1528
aVvanmiddag
p1529
aVallebei
p1530
aVopgewekt
p1531
aVhonderduit
p1532
aVkinderen
p1533
aVbedacht
p1534
aVpostzegels
p1535
aVstopten
p1536
aVpostkantoor
p1537
aVbotste
p1538
aVopzij
p1539
aVbood
p1540
aVverontschuldigingen
p1541
aVluide
p1542
aVkreet
p1543
aVarmen
p1544
aVuitbundig
p1545
aVbeide
p1546
aVwangen
p1547
aVzoende
p1548
aVMon
p1549
aVami
p1550
aVmon
p1551
aVanderen
p1552
aVleuke
p1553
aVontmoeting
p1554
aVMag
p1555
aVmonsieur
p1556
aVAlleen
p1557
aVken
p1558
aVmademoiselle
p1559
aVwelwillendheid
p1560
aVvragende
p1561
aVvervolgde
p1562
aVgastvrijheid
p1563
aVgeboden
p1564
aVlandgenoten
p1565
aVhelaas
p1566
aVgeboorteland
p1567
aVuitwijken
p1568
aVBelgen
p1569
aVdankbaarheid
p1570
aVbuitenissig
p1571
aVamper
p1572
aVmeter
p1573
aVzestig
p1574
aVlang
p1575
aVoptreden
p1576
aVwaardige
p1577
aVhoofd
p1578
aVschuin
p1579
aVstug
p1580
aVkortgeknipt
p1581
aVsnorretje
p1582
aVkleding
p1583
aVpuntjes
p1584
aVverzorgd
p1585
aVvolgens
p1586
aVpluisje
p1587
aVpak
p1588
aVschotwond
p1589
aVtypische
p1590
aVhinkte
p1591
aVmeest
p1592
aVgevierde
p1593
aVleden
p1594
aVBelgische
p1595
aVpolitiekorps
p1596
aVonderscheiden
p1597
aVflair
p1598
aVsuccessen
p1599
aVgeoogst
p1600
aVoplossen
p1601
aVhuisje
p1602
aVonderdak
p1603
aVverkregen
p1604
aVbeloofde
p1605
aVsierlijke
p1606
aVzwaai
p1607
aVhoed
p1608
aVaardig
p1609
aVkende
p1610
aVJullie
p1611
aVverleend
p1612
aVberoemdheid
p1613
aVgedurende
p1614
aVveelzijdige
p1615
aVdaden
p1616
aVtriomfen
p1617
aVHercule
p1618
aVstemming
p1619
aVboudoir
p1620
aVoverstuur
p1621
aVDorcas
p1622
aVoog
p1623
aVeetkamer
p1624
aVbinnenging
p1625
aVJazeker
p1626
aVtrouwe
p1627
aVgedienstige
p1628
aVaarzelde
p1629
aVbedeesd
p1630
aVtoevoegde
p1631
aVU
p1632
aVziet
p1633
aVmoe
p1634
aVgelijk
p1635
aVnee
p1636
aVHeb
p1637
aVhaard
p1638
aVaangemaakt
p1639
aVstaarde
p1640
aVGoeie
p1641
aVgenade
p1642
aVgehoord
p1643
aVdraaide
p1644
aVvlug
p1645
aVtennissen
p1646
aVakkoord
p1647
aVboven
p1648
aVracket
p1649
aVbeneden
p1650
aVverbeelding
p1651
aVvreemd
p1652
aVstreek
p1653
aVPrettig
p1654
aVgewandeld
p1655
aVprobeerde
p1656
aVonverschillig
p1657
aVgegaan
p1658
aVgreep
p1659
aVtrapleuning
p1660
aVkrampachtig
p1661
aVvermannen
p1662
aVwachtte
p1663
aVtrok
p1664
aVdicht
p1665
aVtennisbaan
p1666
aVfragment
p1667
aVwanhopig
p1668
aVbeheersen
p1669
aVWaarop
p1670
aVLaat
p1671
aVHeus
p1672
aVverste
p1673
aVverte
p1674
aVtoenemende
p1675
aVverbittering
p1676
aVdaverende
p1677
aVTussen
p1678
aVhoop
p1679
aVeindelijk
p1680
aVWas
p1681
aVtoevallig
p1682
aVvlak
p1683
aVslaande
p1684
aVwist
p1685
aVwaarschuwing
p1686
aVwijselijk
p1687
aVuitputte
p1688
aVmogelijke
p1689
aVveronderstellingen
p1690
aVspreken
p1691
aVdolgraag
p1692
aVpakken
p1693
aVnergens
p1694
aVingrijpends
p1695
aVtrachtte
p1696
aVopgevangen
p1697
aVzitkamer
p1698
aVsouper
p1699
aVonwerkelijk
p1700
aVgeagiteerd
p1701
aVheerste
p1702
aVdrukkende
p1703
aVstilte
p1704
aVzwijgzaam
p1705
aVregel
p1706
aVomringde
p1707
aVattenties
p1708
aVrug
p1709
aVpaste
p1710
aVrol
p1711
aVtoegewijde
p1712
aVechtgenoot
p1713
aVDirect
p1714
aVBreng
p1715
aVkoffie
p1716
aVWillen
p1717
aVjongelui
p1718
aVlichtje
p1719
aVschemeren
p1720
aVWil
p1721
aVinschenken
p1722
aVDoe
p1723
aVschonk
p1724
aVvoorzichtig
p1725
aVzaten
p1726
aVwarm
p1727
aVwuifde
p1728
aVzachtjes
p1729
aVkoelte
p1730
aVHelaas
p1731
aVduren
p1732
aVogenblikken
p1733
aVharmonie
p1734
aVdroom
p1735
aVruw
p1736
aVverstoord
p1737
aVklank
p1738
aVwelbekende
p1739
aVhartgrondig
p1740
aVverfoeide
p1741
aVgekke
p1742
aVjaloerse
p1743
aVdoorschijnend
p1744
aVbleke
p1745
aVveranderden
p1746
aVEnkele
p1747
aVkondigde
p1748
aVprotesteerde
p1749
aVvertonen
p1750
aVInderdaad
p1751
aVdroeve
p1752
aVaanblik
p1753
aVzat
p1754
aVmodder
p1755
aVuitgevoerd
p1756
aVaanbieden
p1757
aVerop
p1758
aVTsjonge
p1759
aVzie
p1760
aVbinnenkomend
p1761
aVDrink
p1762
aVkop
p1763
aVvertel
p1764
aVuitgespookt
p1765
aVGraag
p1766
aVdank
p1767
aVboer
p1768
aVkiespijn
p1769
aVontoegankelijke
p1770
aVzeldzaam
p1771
aVsoort
p1772
aVvaren
p1773
aVpogingen
p1774
aVgrijpen
p1775
aVevenwicht
p1776
aVverloren
p1777
aVsmadelijk
p1778
aVplas
p1779
aVernaast
p1780
aVgegleden
p1781
aVdrogen
p1782
aVvreselijk
p1783
aVuitzie
p1784
aVuitliep
p1785
aVpapieren
p1786
aVwagenwijd
p1787
aVopgestaan
p1788
aVDaardoor
p1789
aVgetuigen
p1790
aVeed
p1791
aVonaangeroerde
p1792
aVtotaal
p1793
aVbedorven
p1794
aVEindelijk
p1795
aVslaakte
p1796
aVzucht
p1797
aVverlichting
p1798
aVloop
p1799
aVrentmeester
p1800
aVrekeningen
p1801
aVneem
p1802
aVhuissleutel
p1803
aVgedeelte
p1804
aVverhaal
p1805
aVgeef
p1806
aVbladzijde
p1807
aVplattegrond
p1808
aVverdieping
p1809
aVVia
p1810
aVkomt
p1811
aVmen
p1812
aVkamers
p1813
aVpersoneel
p1814
aVrechtstreekse
p1815
aVverbinding
p1816
aVvleugel
p1817
aVsliepen
p1818
aVNaar
p1819
aVmidden
p1820
aVnacht
p1821
aVkaars
p1822
aVergs
p1823
aVrechtop
p1824
aVverwarde
p1825
aVbrein
p1826
aVziek
p1827
aVlijkt
p1828
aVberoerte
p1829
aVergste
p1830
aVkamerjas
p1831
aVgang
p1832
aVoverloop
p1833
aVrechtervleugel
p1834
aVstonden
p1835
aVbedienden
p1836
aVVolgens
p1837
aVbesluiteloosheid
p1838
aVgebleken
p1839
aVrammelde
p1840
aVslot
p1841
aVverontrustende
p1842
aVgeluiden
p1843
aVKunt
p1844
aVarme
p1845
aVrealiseerde
p1846
aVverstek
p1847
aVpikdonker
p1848
aVzwakke
p1849
aVzagen
p1850
aVbeslapen
p1851
aVregelrecht
p1852
aVtussendeur
p1853
aVOok
p1854
aVbinnenkant
p1855
aVhemel
p1856
aVsnikte
p1857
aVhandenwringend
p1858
aVforceren
p1859
aVkarwei
p1860
aVLuister
p1861
aVdienstmeisjes
p1862
aVBaily
p1863
aVwekken
p1864
aVWilkins
p1865
aVwacht
p1866
aVKunnen
p1867
aVvia
p1868
aVgrendel
p1869
aVslaap
p1870
aVschudden
p1871
aVtellen
p1872
aVsolide
p1873
aVinspanning
p1874
aVkrachten
p1875
aVduwden
p1876
aVweerstand
p1877
aVverwoede
p1878
aVvoelden
p1879
aVgewicht
p1880
aVbezwijken
p1881
aVvloog
p1882
aVtenslotte
p1883
aVstruikelden
p1884
aVhevige
p1885
aVstuiptrekkingen
p1886
aVteisterden
p1887
aVlichaam
p1888
aVblijkbaar
p1889
aVtafeltje
p1890
aVomgestoten
p1891
aVbinnenkwamen
p1892
aVontspanden
p1893
aVspieren
p1894
aVkussens
p1895
aVlamp
p1896
aVstuurde
p1897
aVAnnie
p1898
aVcognac
p1899
aVpunt
p1900
aVhen
p1901
aVbestierven
p1902
aVNog
p1903
aVlijkbleek
p1904
aVkandelaar
p1905
aVtrilde
p1906
aVkaarsvet
p1907
aVdrupte
p1908
aVvloerkleed
p1909
aVangst
p1910
aVstaarden
p1911
aVstrak
p1912
aVbepaald
p1913
aVmuur
p1914
aVversteend
p1915
aVOnwillekeurig
p1916
aVas
p1917
aVrij
p1918
aVstijve
p1919
aVschoorsteenmantel
p1920
aVvolkomen
p1921
aVonschuldig
p1922
aVaanval
p1923
aVhevig
p1924
aVhorten
p1925
aVstoten
p1926
aVAl
p1927
aVdom
p1928
aVstaan
p1929
aVversuft
p1930
aVuitzag
p1931
aVsteunde
p1932
aVgeeuwen
p1933
aVgeschrokken
p1934
aVfluisterend
p1935
aVhoorbaar
p1936
aVstreepje
p1937
aVdaglicht
p1938
aVkier
p1939
aVgordijnen
p1940
aVklok
p1941
aVgesmoorde
p1942
aVopschrikken
p1943
aVopnieuw
p1944
aVgetroffen
p1945
aVvreselijke
p1946
aVkrampen
p1947
aVafschuwelijk
p1948
aVrep
p1949
aVroer
p1950
aVmachte
p1951
aVverlichten
p1952
aVstuiptrekking
p1953
aVomhoog
p1954
aVhielen
p1955
aVTevergeefs
p1956
aVprobeerden
p1957
aVvoorbij
p1958
aVWeer
p1959
aVkromde
p1960
aVeigenaardige
p1961
aVautoritair
p1962
aVgenageld
p1963
aVgestalte
p1964
aVgericht
p1965
aVbewegingloos
p1966
aVachterover
p1967
aVbewoog
p1968
aVkrachtig
p1969
aVbegreep
p1970
aVkunstmatige
p1971
aVademhaling
p1972
aVkorte
p1973
aVbevelen
p1974
aVgebiedend
p1975
aVgebaar
p1976
aVdreef
p1977
aVGefascineerd
p1978
aVkeken
p1979
aVhijzelf
p1980
aVernstig
p1981
aVschudde
p1982
aVvoetstappen
p1983
aVhuisarts
p1984
aVbinnenstormen
p1985
aVwelgedaan
p1986
aVzenuwachtig
p1987
aVgelopen
p1988
aVlangskwam
p1989
aVgerend
p1990
aVdoorreed
p1991
aVVaag
p1992
aVHeel
p1993
aVdroevig
p1994
aVmompelde
p1995
aVDeed
p1996
aVadvies
p1997
aVgewaarschuwd
p1998
aVsterk
p1999
aVKalm
p2000
aVkalm
p2001
aVhoor
p2002
aVijver
p2003
aVtol
p2004
aVaankeek
p2005
aVaard
p2006
aVtetanus
p2007
aVnadenkend
p2008
aVvier
p2009
aVbezwaar
p2010
aVdromden
p2011
aVallen
p2012
aVlieten
p2013
aVdokters
p2014
aVsleutel
p2015
aVomdraaien
p2016
aVDeduceren
p2017
aVcombineren
p2018
aVaanleiding
p2019
aVgissingen
p2020
aVWaarom
p2021
aVgehoorsafstand
p2022
aVdempte
p2023
aVvermoedt
p2024
aVdeinsde
p2025
aVachteruit
p2026
aVwijd
p2027
aVopengesperde
p2028
aVluid
p2029
aVvluchtte
p2030
aVflauwvallen
p2031
aVsteunend
p2032
aVdoodsbleek
p2033
aVOngeduldig
p2034
aVgebaarde
p2035
aVbetijen
p2036
aVTegen
p2037
aVgehoorzaamde
p2038
aVzeiden
p2039
aVuitsprak
p2040
aVdachten
p2041
aVverbrak
p2042
aVafwezigheid
p2043
aVonverklaarbaar
p2044
aVstierf
p2045
aVdaarachter
p2046
aVafkomen
p2047
aVgewichtig
p2048
aVopwinding
p2049
aVgepaste
p2050
aVkalmte
p2051
aVachtergrond
p2052
aVplechtige
p2053
aVbaardige
p2054
aVvoerde
p2055
aVtoestemming
p2056
aVlijkschouwing
p2057
aVnoodzakelijk
p2058
aVvertrok
p2059
aVpijnlijk
p2060
aVbetekent
p2061
aVnoch
p2062
aVikzelf
p2063
aVakte
p2064
aVoverlijden
p2065
aVtekenen
p2066
aVblijft
p2067
aVDank
p2068
aVopgelucht
p2069
aVmorgenavond
p2070
aVplaatsvinden
p2071
aVmorgenlicht
p2072
aVgerechtelijk
p2073
aVonderzoek
p2074
aVformaliteiten
p2075
aVgebruikelijk
p2076
aVongerust
p2077
aVEven
p2078
aVhaalde
p2079
aVsleutels
p2080
aVzak
p2081
aVafgesloten
p2082
aVmening
p2083
aVvoorlopig
p2084
aVvertrokken
p2085
aVgespeeld
p2086
aVter
p2087
aVsprake
p2088
aVhuiverig
p2089
aVvorm
p2090
aVpubliciteit
p2091
aVverafschuwde
p2092
aVbovendien
p2093
aVoptimist
p2094
aVonnodige
p2095
aVzorgen
p2096
aVhals
p2097
aVovertuigen
p2098
aVjuistheid
p2099
aVdaarentegen
p2100
aVconventioneel
p2101
aVfantasie
p2102
aVmedewerking
p2103
aVrekenen
p2104
aVZonder
p2105
aVtwijfel
p2106
aVinitiatief
p2107
aVnemen
p2108
aVvragen
p2109
aVherinnert
p2110
aVgesproken
p2111
aVBelg
p2112
aVonderzoeken
p2113
aVVoordat
p2114
aVverklaring
p2115
aVspel
p2116
aVOnzin
p2117
aVboos
p2118
aVhersenschim
p2119
aVaangepraat
p2120
aVspecialisten
p2121
aVVergiften
p2122
aVeenmaal
p2123
aVstokpaardje
p2124
aVoveral
p2125
aVverbaasd
p2126
aVwond
p2127
aVzelden
p2128
aVvoel
p2129
aVschandaal
p2130
aVhoef
p2131
aVdiscretie
p2132
aVzelve
p2133
aVVooruit
p2134
aVdoe
p2135
aVMoge
p2136
aVGod
p2137
aVonrechte
p2138
aVbeschuldig
p2139
aVzes
p2140
aVverliezen
p2141
aVveroorloofde
p2142
aVoponthoud
p2143
aVbesteedde
p2144
aVkoortsachtig
p2145
aVbibliotheek
p2146
aVmedisch
p2147
aVontdekte
p2148
aVbeschrijving
p2149
aVvoorkwam
p2150
aVingang
p2151
aVbesparen
p2152
aVsmal
p2153
aVhoge
p2154
aVbochten
p2155
aVkronkelende
p2156
aVafsneed
p2157
aVaandacht
p2158
aVgetrokken
p2159
aVverklaren
p2160
aVOpgewonden
p2161
aVklampte
p2162
aVverschrikkelijk
p2163
aVDenby
p2164
aVgisteravond
p2165
aVOmdat
p2166
aVbellen
p2167
aVovernachten
p2168
aVbelde
p2169
aVvertellen
p2170
aVzelfopoffering
p2171
aVedel
p2172
aVkarakter
p2173
aVgevergd
p2174
aVplotselinge
p2175
aVafkeer
p2176
aVopkomen
p2177
aVdoortrapte
p2178
aVhuichelaar
p2179
aVdankbaar
p2180
aVheenging
p2181
aVklopte
p2182
aVCottage
p2183
aVongeduld
p2184
aVBoven
p2185
aVbehoedzaam
p2186
aVgeopend
p2187
aVvertelde
p2188
aVtragisch
p2189
aVongeval
p2190
aVWacht
p2191
aVbinnenlaten
p2192
aVuitvoerig
p2193
aVaankleed
p2194
aVinstalleerde
p2195
aVonbetekenend
p2196
aVbedachtzaam
p2197
aVuiterste
p2198
aVkleedde
p2199
aVgewekt
p2200
aVvorige
p2201
aVtussen
p2202
aVschoonmoeder
p2203
aVonenigheid
p2204
aVdaaraan
p2205
aVvoorafgegaan
p2206
aVEvelyns
p2207
aVinsinuaties
p2208
aVbondig
p2209
aVgewenst
p2210
aVherhaling
p2211
aValsnog
p2212
aVdetail
p2213
aVinlassen
p2214
aVverward
p2215
aVnietwaar
p2216
aVNeem
p2217
aVbegrijpelijk
p2218
aVZometeen
p2219
aVwanneer
p2220
aVgekalmeerd
p2221
aVfeiten
p2222
aVkeurig
p2223
aVrangschikken
p2224
aVjuiste
p2225
aVselecteren
p2226
aVbelangrijke
p2227
aVonbelangrijke
p2228
aVkomisch
p2229
aVblazen
p2230
aVbolle
p2231
aVblaas
p2232
aVuitmaken
p2233
aVbelangrijk
p2234
aVmoeilijkheid
p2235
aVnadrukkelijk
p2236
aVbesteden
p2237
aVHelemaal
p2238
aVvolgt
p2239
aVPast
p2240
aVA
p2241
aVfeitje
p2242
aVHe
p2243
aVgek
p2244
aVgemist
p2245
aVontbreekt
p2246
aVschakel
p2247
aVketen
p2248
aVspeuren
p2249
aVbijzondere
p2250
aVnietige
p2251
aVinpassen
p2252
aVoverdreven
p2253
aVkolossaal
p2254
aVbelang
p2255
aVAh
p2256
aVwijsvinger
p2257
aVWee
p2258
aVbetekenen
p2259
aVpast
p2260
aVchaos
p2261
aVvoorgehouden
p2262
aVDaarom
p2263
aVdetails
p2264
aVingegaan
p2265
aVrelevant
p2266
aVleken
p2267
aVnauwgezet
p2268
aVovergebracht
p2269
aVOver
p2270
aVvolgorde
p2271
aVbrengt
p2272
aVzeg
p2273
aVhuilen
p2274
aVvingers
p2275
aVtoeren
p2276
aVDaaraan
p2277
aVwijt
p2278
aVweglaten
p2279
aVhoogste
p2280
aVgegeten
p2281
aVhersens
p2282
aVborstelde
p2283
aVjas
p2284
aVhierdoor
p2285
aVbeslag
p2286
aVherinneren
p2287
aVZie
p2288
aVgepikeerd
p2289
aVVoorzover
p2290
aVeetlust
p2291
aVlogisch
p2292
aVpeinzend
p2293
aVla
p2294
aVaktentas
p2295
aVchateau
p2296
aVzaken
p2297
aVplaatse
p2298
aVbekijken
p2299
aVkwalijk
p2300
aVhaastig
p2301
aVaangekleed
p2302
aVdas
p2303
aVscheef
p2304
aVhandig
p2305
aVrecht
p2306
aVCa
p2307
aVy
p2308
aVest
p2309
aVZullen
p2310
aVtreurig
p2311
aVuitgestrekte
p2312
aVglinsterde
p2313
aVdauw
p2314
aVrouw
p2315
aVgedompeld
p2316
aVgebroken
p2317
aVsmart
p2318
aVstaren
p2319
aVHad
p2320
aVervan
p2321
aVbewust
p2322
aVontbrak
p2323
aVoverledene
p2324
aVgave
p2325
aVliefde
p2326
aVdwingen
p2327
aVschok
p2328
aVgetreurd
p2329
aVgeraden
p2330
aVbanden
p2331
aVdes
p2332
aVbloeds
p2333
aVAfkomst
p2334
aVverloochent
p2335
aVonthoud
p2336
aVafkomst
p2337
aVzwijgend
p2338
aVdoorlopen
p2339
aVgewoonte
p2340
aVleggen
p2341
aVkannen
p2342
aVkruiken
p2343
aVbeweerd
p2344
aVstrychnine
p2345
aVvermoedelijk
p2346
aVtoegediend
p2347
aVingeschonken
p2348
aVdronk
p2349
aVnegen
p2350
aVStrychnine
p2351
aVsnelwerkend
p2352
aVvergif
p2353
aVuitwerking
p2354
aVopenbaren
p2355
aVsymptomen
p2356
aVochtend
p2357
aVgelijktijdig
p2358
aVmaal
p2359
aVbinnenkrijgt
p2360
aVvertragen
p2361
aVmate
p2362
aVmogelijkheid
p2363
aVrekening
p2364
aVdienen
p2365
aVat
p2366
aVtreden
p2367
aVwonderlijke
p2368
aVautopsie
p2369
aVVergeet
p2370
aVondertussen
p2371
aVnaderden
p2372
aVafgetobd
p2373
aVHeeft
p2374
aVbegrijp
p2375
aVbestaat
p2376
aVenkel
p2377
aVbewijs
p2378
aVJuist
p2379
aVvoorzorgsmaatregel
p2380
aVsigaret
p2381
aVopstak
p2382
aVkoker
p2383
aVzojuist
p2384
aVgehaald
p2385
aVgooide
p2386
aVlucifer
p2387
aVDeze
p2388
aVhandelwijze
p2389
aVlijnrecht
p2390
aVraapte
p2391
aVbegroef
p2392
aVnetjes
p2393
aVmoeilijkheden
p2394
aVopleveren
p2395
aVverklaarde
p2396
aVbedekte
p2397
aVtoespeling
p2398
aVontging
p2399
aVgekregen
p2400
aVEnfin
p2401
aVmaakt
p2402
aVgemakkelijker
p2403
aVsamen
p2404
aVdrama
p2405
aVafgespeeld
p2406
aVonderwierp
p2407
aVmus
p2408
aVvoorwerp
p2409
aVeventuele
p2410
aVsporen
p2411
aVhiervoor
p2412
aVo
p2413
aVvoetsporen
p2414
aVwissen
p2415
aVVoetsporen
p2416
aVsnugger
p2417
aVleger
p2418
aVtas
p2419
aVneerzetten
p2420
aVbleek
p2421
aVverstandig
p2422
aVwipte
p2423
aVEt
p2424
aVvoila
p2425
aVune
p2426
aVcomfort
p2427
aVhoeven
p2428
aVbespiegeling
p2429
aVhervatte
p2430
aVpaars
p2431
aVsleuteltje
p2432
aVbureau
p2433
aVbijzonders
p2434
aVgewone
p2435
aVyalesleutel
p2436
aVbovenaan
p2437
aVstukje
p2438
aVverwrongen
p2439
aVijzerdraad
p2440
aVerdoor
p2441
aVVervolgens
p2442
aVonderzocht
p2443
aVkozijn
p2444
aVgezeten
p2445
aVertegenover
p2446
aVtoegang
p2447
aVomstandig
p2448
aVeraf
p2449
aVschuiven
p2450
aVverscheidene
p2451
aVkeren
p2452
aVuiterst
p2453
aVtrekken
p2454
aVzorgvuldig
p2455
aVvervolgens
p2456
aVsnelle
p2457
aVbeweging
p2458
aVpakte
p2459
aVkleins
p2460
aVbevond
p2461
aVsteelpannetje
p2462
aVpannetje
p2463
aVrestje
p2464
aVvloeistof
p2465
aVgebruikt
p2466
aVleeg
p2467
aVonoplettend
p2468
aVHier
p2469
aVaanwijzing
p2470
aVvinger
p2471
aVproefde
p2472
aVChocola
p2473
aVrum
p2474
aVravage
p2475
aVaangericht
p2476
aVomvallen
p2477
aVboeken
p2478
aVlucifers
p2479
aVsleutelbos
p2480
aVversplinterd
p2481
aVkoffiekopje
p2482
aVlagen
p2483
aVvreemds
p2484
aVontdekken
p2485
aVKijk
p2486
aVplaatsen
p2487
aVverpulverd
p2488
aVAch
p2489
aVmat
p2490
aVgetrapt
p2491
aVgehurkte
p2492
aVverzonken
p2493
aVhebbelijkheid
p2494
aVdaarvan
p2495
aVbevatte
p2496
aVerger
p2497
aVvolgen
p2498
aVnader
p2499
aVactief
p2500
aVbos
p2501
aVronddraaien
p2502
aVkoos
p2503
aVblinkende
p2504
aVpaarse
p2505
aVaarzeling
p2506
aVoorspronkelijk
p2507
aVbevoegdheid
p2508
aVliefst
p2509
aVladen
p2510
aVwastafel
p2511
aVdoorliep
p2512
aVlinks
p2513
aVvlek
p2514
aVzichtbaar
p2515
aVdonkerbruine
p2516
aVkleed
p2517
aVknieen
p2518
aVbestuderen
p2519
aVzover
p2520
aVrook
p2521
aVgoot
p2522
aVchocola
p2523
aVreageerbuisje
p2524
aVverzegelde
p2525
aVnotitieboekje
p2526
aVschrijvend
p2527
aVpunten
p2528
aVopnoemen
p2529
aVpoeder
p2530
aVgestampt
p2531
aVvloer
p2532
aVrede
p2533
aVruikt
p2534
aVVier
p2535
aVdonkergroen
p2536
aVweefsel
p2537
aVdraadjes
p2538
aVherkenbaar
p2539
aVenvelop
p2540
aVjurken
p2541
aVonbelangrijk
p2542
aVdramatisch
p2543
aVdienstmeisje
p2544
aVvloeipapier
p2545
aVheet
p2546
aVstrijkijzer
p2547
aVverwijderd
p2548
aVhoeden
p2549
aVdoet
p2550
aVzake
p2551
aVverstijven
p2552
aVinteressant
p2553
aVgeeft
p2554
aVgehele
p2555
aVbreedte
p2556
aVafkomstig
p2557
aVwit
p2558
aVtoilettafel
p2559
aVrose
p2560
aVBovendien
p2561
aVmaak
p2562
aVdaaruit
p2563
aVraad
p2564
aVaangeboren
p2565
aVgaven
p2566
aVgebruiken
p2567
aVirritant
p2568
aVvondEn
p2569
aVmonster
p2570
aVveronderstel
p2571
aVmeerekenen
p2572
aVrond
p2573
aVtenzij
p2574
aVuitgedoofde
p2575
aVVuur
p2576
aVbrandt
p2577
aVverwoest
p2578
aVsystematisch
p2579
aVdoorzoeken
p2580
aVpincet
p2581
aVVlug
p2582
aVreikte
p2583
aVAlsjeblieft
p2584
aVkritisch
p2585
aVkanten
p2586
aVongewoon
p2587
aVdik
p2588
aVnormaal
p2589
aVpostpapier
p2590
aVverwacht
p2591
aVmethodische
p2592
aVduizelde
p2593
aVcomplicatie
p2594
aVbetekende
p2595
aVvernietigd
p2596
aVDegene
p2597
aVgemorst
p2598
aVWaarschijnlijk
p2599
aVpersoon
p2600
aVbinnengekomen
p2601
aVAlle
p2602
aVvrij
p2603
aVgrondig
p2604
aVdeden
p2605
aVverzoek
p2606
aVzoek
p2607
aVterugkwam
p2608
aVuitgelopen
p2609
aVbewondering
p2610
aVbloembedden
p2611
aVPrachtig
p2612
aVsymmetrie
p2613
aVvormen
p2614
aVhalve
p2615
aVmaan
p2616
aVruiten
p2617
aVlust
p2618
aVverdeling
p2619
aVoppervlak
p2620
aVperfect
p2621
aVgistermiddag
p2622
aVEh
p2623
aVbien
p2624
aVeh
p2625
aVgun
p2626
aVJawel
p2627
aVbelangrijker
p2628
aVbegonias
p2629
aVschouders
p2630
aVpraten
p2631
aVBen
p2632
aVbrave
p2633
aVondervragen
p2634
aVschort
p2635
aVgevouwen
p2636
aVmutsje
p2637
aVkrullen
p2638
aVtoonbeeld
p2639
aVouderwetse
p2640
aVaanvankelijk
p2641
aVachterdochtig
p2642
aVijs
p2643
aVTien
p2644
aVgehecht
p2645
aVzul
p2646
aVvolledige
p2647
aVkleinste
p2648
aVbijzonderheden
p2649
aVgeheimen
p2650
aVverraadt
p2651
aVtenminste
p2652
aVwreken
p2653
aVNiets
p2654
aVmisdrijf
p2655
aVgerechte
p2656
aVstraf
p2657
aVontlopen
p2658
aVamen
p2659
aVfel
p2660
aVnamen
p2661
aVkwade
p2662
aVvoet
p2663
aVdrempel
p2664
aVverontwaardiging
p2665
aVgezakt
p2666
aVzakelijke
p2667
aVprecies
p2668
aVtheetijd
p2669
aVhierbinnen
p2670
aVhard
p2671
aVverstaan
p2672
aVgelogen
p2673
aVbedrogen
p2674
aVhoren
p2675
aVzachter
p2676
aVdurf
p2677
aVdak
p2678
aVnaam
p2679
aVschande
p2680
aVbesluit
p2681
aVechtelijk
p2682
aVaankomen
p2683
aVgebeurde
p2684
aVerbij
p2685
aVdiep
p2686
aVgeschokt
p2687
aVlekker
p2688
aVzomaar
p2689
aVZon
p2690
aVVertrouw
p2691
aVbedankte
p2692
aVvreselijks
p2693
aVstilhouden
p2694
aVHield
p2695
aVkistje
p2696
aVBewaarde
p2697
aVavonds
p2698
aVWanneer
p2699
aVmiste
p2700
aVetenstijd
p2701
aVhumeur
p2702
aVwaarheid
p2703
aVWees
p2704
aVgerust
p2705
aVgevonden
p2706
aVpuilden
p2707
aVm
p2708
aVwaarachtig
p2709
aVgezocht
p2710
aVdonkergroene
p2711
aVonverwachte
p2712
aVjurk
p2713
aVavondjurk
p2714
aVLicht
p2715
aVlichtgroene
p2716
aVgroens
p2717
aVteleurgesteld
p2718
aVovergaan
p2719
aVslaappoeder
p2720
aVingenomen
p2721
aVGisteravond
p2722
aVdoosje
p2723
aVAbsoluut
p2724
aVopgehelderd
p2725
aVhaakjes
p2726
aVgevraagd
p2727
aVvonden
p2728
aVvrijaf
p2729
aVonverschillige
p2730
aVkoffiekopjes
p2731
aVkeuken
p2732
aVletten
p2733
aVweggegaan
p2734
aVslenterde
p2735
aVbloemenbedden
p2736
aVzostraks
p2737
aVbewonderd
p2738
aVboel
p2739
aVonderhouden
p2740
aVouwe
p2741
aVManning
p2742
aVWilliam
p2743
aVhelpt
p2744
aVmoderne
p2745
aVbroek
p2746
aVtegenwoordig
p2747
aVtijden
p2748
aVsturen
p2749
aVduplicaat
p2750
aVding
p2751
aVOnverhoeds
p2752
aVkartonnen
p2753
aVapothekers
p2754
aVpoeders
p2755
aVlijstje
p2756
aVnauwlettend
p2757
aVetiket
p2758
aVlas
p2759
aVslapen
p2760
aVbehoefte
p2761
aVapotheker
p2762
aVAha
p2763
aVooit
p2764
aVzulke
p2765
aVdoosjes
p2766
aVverkoopt
p2767
aVdomper
p2768
aVenthousiasme
p2769
aVmerken
p2770
aVeenvoudig
p2771
aVbreek
p2772
aVluidruchtig
p2773
aVgekraak
p2774
aVkomst
p2775
aVzodat
p2776
aVdaarop
p2777
aVreageren
p2778
aVnerveus
p2779
aVintens
p2780
aVgenoegen
p2781
aVadressen
p2782
aVWells
p2783
aVnotaris
p2784
aVRoss
p2785
aVDenk
p2786
aVdrong
p2787
aVtevergeefs
p2788
aVfinaal
p2789
aVhindert
p2790
aVspoor
p2791
aVteleurstelling
p2792
aVelke
p2793
aVwarmde
p2794
aVGewone
p2795
aVmelk
p2796
aVtheelepel
p2797
aVsuiker
p2798
aVtheelepels
p2799
aVAltijd
p2800
aVMeestal
p2801
aVBracht
p2802
aVrechtstreeks
p2803
aVgasfornuis
p2804
aVkeukenmeid
p2805
aVgewoonlijk
p2806
aVgroente
p2807
aVopzette
p2808
aVavondeten
p2809
aVAan
p2810
aVgeleidelijk
p2811
aVhogere
p2812
aVonverwachts
p2813
aVzout
p2814
aVschuld
p2815
aVGrof
p2816
aVkeukenzout
p2817
aVopgevallen
p2818
aVveegde
p2819
aVbewijsstuk
p2820
aVgeleverd
p2821
aVopenvallen
p2822
aVgrof
p2823
aVdodelijke
p2824
aVmensheid
p2825
aVkent
p2826
aVzelfbeheersing
p2827
aVverbazingwekkend
p2828
aVdaarin
p2829
aVbinnenkwam
p2830
aVdurven
p2831
aVuitging
p2832
aVergens
p2833
aVKaarsvet
p2834
aVuitgehaald
p2835
aVherhaalde
p2836
aVmantel
p2837
aVnoem
p2838
aVsportjasje
p2839
aVBien
p2840
aVZenuwachtig
p2841
aVgiechelend
p2842
aVverliet
p2843
aVopgekropte
p2844
aVWel
p2845
aVgefeliciteerd
p2846
aVgrootse
p2847
aVontdekking
p2848
aVverklaart
p2849
aVmorgens
p2850
aVopgedronken
p2851
aVlet
p2852
aVdroog
p2853
aVdebatteren
p2854
aVPersoonlijk
p2855
aVgeluk
p2856
aVsamenwerkte
p2857
aVgroter
p2858
aVbevattingsvermogen
p2859
aVkoel
p2860
aVwet
p2861
aVmijne
p2862
aVzeer
p2863
aVloffelijke
p2864
aVhoek
p2865
aVgeoefende
p2866
aVdraaiend
p2867
aVvoldoening
p2868
aVVoila
p2869
aVermee
p2870
aVrolde
p2871
aVdeksel
p2872
aVglijden
p2873
aVstapeltjes
p2874
aVgoedkeurend
p2875
aVmethodisch
p2876
aVkwalificatie
p2877
aVmens
p2878
aVverdienen
p2879
aVonsamenhangend
p2880
aVgekund
p2881
aVWelnu
p2882
aVdwaalden
p2883
aVopgeleverd
p2884
aVverkreukelde
p2885
aVdocument
p2886
aVsmoezelig
p2887
aVlukraak
p2888
aVgekrabbeld
p2889
aVprullenmand
p2890
aVHerken
p2891
aVhandschrift
p2892
aVabsurde
p2893
aVinval
p2894
aVgestoord
p2895
aVboze
p2896
aVbezeten
p2897
aVberoofd
p2898
aVtheorieen
p2899
aVuiteen
p2900
aVafleidden
p2901
aVlala
p2902
aVellendige
p2903
aVspottend
p2904
aVolijk
p2905
aVhief
p2906
aVslechte
p2907
aVsmaak
p2908
aVhoopt
p2909
aVaangezien
p2910
aVdienblad
p2911
aVstekend
p2912
aVNe
p2913
aVvous
p2914
aVGun
p2915
aVinteresseren
p2916
aVrespecteren
p2917
aVAfgesproken
p2918
aVhumor
p2919
aVlachen
p2920
aVachtergelaten
p2921
aVherhalen
p2922
aVluisterde
p2923
aVplaatsing
p2924
aVkopjes
p2925
aVlege
p2926
aVdrinkt
p2927
aVklopt
p2928
aVUiterst
p2929
aVbodempje
p2930
aVgeproefd
p2931
aVafzonderlijke
p2932
aVreageerbuisjes
p2933
aVonderging
p2934
aVmerkwaardige
p2935
aVbeschrijven
p2936
aVverbijsterd
p2937
aVmis
p2938
aVkarakteristiek
p2939
aVschouderophalen
p2940
aVhinderde
p2941
aVobsessie
p2942
aVaanzien
p2943
aVuitlopen
p2944
aVbedwang
p2945
aVUiteindelijk
p2946
aVontbijt
p2947
aVOntbijt
p2948
aVstemde
p2949
aVsloeg
p2950
aVgade
p2951
aValweer
p2952
aVafgelopen
p2953
aVtijdelijk
p2954
aVgelijkmatige
p2955
aVhersteld
p2956
aVtegenstelling
p2957
aVovermaat
p2958
aVlijden
p2959
aVvroege
p2960
aVverzenden
p2961
aVtelegrammen
p2962
aVopstellen
p2963
aVoverlijdensberichten
p2964
aVkranten
p2965
aValgemeen
p2966
aVplichten
p2967
aVsterfgeval
p2968
aVmeebrengt
p2969
aVvorderingen
p2970
aVWijzen
p2971
aVresultaten
p2972
aVnatuurlijke
p2973
aVvalse
p2974
aVkoesteren
p2975
aVovertuigd
p2976
aVwijst
p2977
aVhartverlamming
p2978
aVbetrok
p2979
aVstilzwijgen
p2980
aVpijnlijke
p2981
aVongedwongen
p2982
aVmaag
p2983
aVdraait
p2984
aVmeelevend
p2985
aVopgaf
p2986
aVthuiskomen
p2987
aVvannacht
p2988
aVmeegenomen
p2989
aVopgekomen
p2990
aVcontroleren
p2991
aVbewaren
p2992
aVruimschoots
p2993
aVgekeken
p2994
aVthuiskwam
p2995
aVvoordeel
p2996
aVverbluft
p2997
aVPieker
p2998
aVverzeker
p2999
aVbijeen
p3000
aVvormden
p3001
aVschokkende
p3002
aVgebeurtenis
p3003
aVkrijg
p3004
aVterugslag
p3005
aVGevoel
p3006
aVdecorum
p3007
aVdegelijke
p3008
aVopvoeding
p3009
aVmaakten
p3010
aVkostte
p3011
aVverdriet
p3012
aVvergis
p3013
aVaangedaan
p3014
aVpersoonlijke
p3015
aVtragische
p3016
aVwalgelijk
p3017
aVschijnheilige
p3018
aVdiepbedroefde
p3019
aVverdachten
p3020
aVVoelde
p3021
aVopkomende
p3022
aVvertrouwde
p3023
aVongestraft
p3024
aVreeds
p3025
aVgetekende
p3026
aVverdacht
p3027
aVelegant
p3028
aVraadselachtig
p3029
aVpolsen
p3030
aVruches
p3031
aVvielen
p3032
aVondoorgrondelijke
p3033
aVkrachtige
p3034
aVdomineerde
p3035
aVopvallend
p3036
aVloom
p3037
aVopenhartig
p3038
aVbeestachtige
p3039
aVhoofdpijn
p3040
aVWilt
p3041
aVbezorgd
p3042
aVopknappen
p3043
aVbeters
p3044
aVmal
p3045
aVsuikertang
p3046
aVvanwege
p3047
aVgebruik
p3048
aVSacre
p3049
aVvolle
p3050
aVterugbracht
p3051
aVopkeek
p3052
aVkat
p3053
aVtraag
p3054
aVbegrip
p3055
aVVlak
p3056
aVstudeerkamer
p3057
aVlijkschouwer
p3058
aVbegrijpt
p3059
aVstelt
p3060
aVstemden
p3061
aVvolgden
p3062
aVgelegenheid
p3063
aVfluisteren
p3064
aVingesteld
p3065
aVafwezig
p3066
aVnieuwsgierigheid
p3067
aVprikkelde
p3068
aVluistert
p3069
aVgrapje
p3070
aVIntegendeel
p3071
aVmeen
p3072
aVintuitie
p3073
aVbeslist
p3074
aVMondje
p3075
aVtestamenten
p3076
aVwelke
p3077
aVgeruststellend
p3078
aVnarigheid
p3079
aVuiteraard
p3080
aVuitgesloten
p3081
aVPientere
p3082
aVdeskundige
p3083
aVtoxicologie
p3084
aVhe
p3085
aVstijfjes
p3086
aVaarzelend
p3087
aVMoeten
p3088
aVverschijnen
p3089
aVenne
p3090
aVgetuigenverklaring
p3091
aVbevestiging
p3092
aVlouter
p3093
aVformaliteit
p3094
aVvrijdag
p3095
aVdoktersrapport
p3096
aVregeling
p3097
aVUitstekend
p3098
aVbehulpzaam
p3099
aVoplossing
p3100
aVsinds
p3101
aVbriefje
p3102
aVbezoeken
p3103
aVdoorschemeren
p3104
aVJammer
p3105
aVErg
p3106
aVjammer
p3107
aVbeaamde
p3108
aVerft
p3109
aVbeantwoorden
p3110
aVaftrek
p3111
aVlegaten
p3112
aVvermaakte
p3113
aVgedateerd
p3114
aVaugustus
p3115
aVvorig
p3116
aVstiefzoon
p3117
aVheer
p3118
aVneemt
p3119
aVvoorwaarden
p3120
aVerven
p3121
aVbedrag
p3122
aVstand
p3123
aVeerlijke
p3124
aVbillijke
p3125
aVEngels
p3126
aVautomatisch
p3127
aVverviel
p3128
aVZoals
p3129
aVopmerken
p3130
aVnul
p3131
aVgener
p3132
aVwaarde
p3133
aVHein
p3134
aVonverwacht
p3135
aVhertrouwen
p3136
aVongeldig
p3137
aVMoet
p3138
aVopmaken
p3139
aVvoordien
p3140
aVGemiddeld
p3141
aVnieuw
p3142
aVonverstoorbaar
p3143
aVtestamentaire
p3144
aVbeschikkingen
p3145
aVneiging
p3146
aVlid
p3147
aVbegunstigen
p3148
aVVeronderstel
p3149
aVgunste
p3150
aVopzicht
p3151
aVbijvoorbeeld
p3152
aVbespraken
p3153
aVdoornemen
p3154
aVgewend
p3155
aVKomt
p3156
aVdoorkijken
p3157
aVeenvoudiger
p3158
aVformeel
p3159
aVbureautje
p3160
aVbeginnen
p3161
aVslaapkamer
p3162
aVbewaarde
p3163
aVbelangrijkste
p3164
aVbezit
p3165
aVbedoelt
p3166
aVVerbrand
p3167
aVkijkt
p3168
aVverschroeide
p3169
aVZelfs
p3170
aVOnmogelijk
p3171
aVriepen
p3172
aVmannen
p3173
aVtoestaat
p3174
aVtuinman
p3175
aVroepen
p3176
aVNaderhand
p3177
aVBest
p3178
aVwachtten
p3179
aVbeklemmend
p3180
aVgemak
p3181
aVstofte
p3182
aVhoekje
p3183
aVboekenkast
p3184
aVgrint
p3185
aVvragend
p3186
aVpet
p3187
aVschuchter
p3188
aVeruitzag
p3189
aVlangzame
p3190
aVomzichtige
p3191
aVbeantwoordt
p3192
aVbromde
p3193
aVminachtend
p3194
aVplanten
p3195
aVzuidkant
p3196
aVVertel
p3197
aVfiets
p3198
aVformulier
p3199
aVkeer
p3200
aVgeroepen
p3201
aVbinnenkomen
p3202
aVonderaan
p3203
aVhandtekening
p3204
aVvloei
p3205
aVoverheen
p3206
aVtekenden
p3207
aVstopte
p3208
aVdoos
p3209
aVvieren
p3210
aVervoor
p3211
aVvoldoende
p3212
aVhuizes
p3213
aVzacht
p3214
aVtuindeur
p3215
aVtoeval
p3216
aVschraapte
p3217
aVkeel
p3218
aVbeefde
p3219
aVinhoud
p3220
aVbepalingen
p3221
aVOngetwijfeld
p3222
aVerover
p3223
aVgeraadpleegd
p3224
aVkans
p3225
aVverdwijnt
p3226
aVgeheim
p3227
aVMonsieur
p3228
aVophelderen
p3229
aVgeweten
p3230
aVinstantie
p3231
aVgezet
p3232
aVgeplant
p3233
aVdieper
p3234
aVlangsreed
p3235
aVHa
p3236
aVblij
p3237
aVOnze
p3238
aVHeer
p3239
aVbevrijden
p3240
aVsjaals
p3241
aVvoiles
p3242
aVdegene
p3243
aVdringend
p3244
aVwier
p3245
aVbesteed
p3246
aVluchthartig
p3247
aVrechte
p3248
aVbeschaamd
p3249
aVdoorzien
p3250
aVgebleven
p3251
aVwaakzame
p3252
aVhanddruk
p3253
aVopluchting
p3254
aVbedroefd
p3255
aVverwijtend
p3256
aVgehuild
p3257
aVbittere
p3258
aVtranen
p3259
aVgezwollen
p3260
aVoogleden
p3261
aVnors
p3262
aVtelegram
p3263
aVKwam
p3264
aVnachtdienst
p3265
aVHuurde
p3266
aVVlugste
p3267
aVafgeruimd
p3268
aVverse
p3269
aVZorg
p3270
aVargwanend
p3271
aVHelpt
p3272
aVHebben
p3273
aVgevangenis
p3274
aVgelooft
p3275
aVgestorven
p3276
aVstommer
p3277
aVvinnig
p3278
aVvermoord
p3279
aVschreeuw
p3280
aVmomenteel
p3281
aVLarie
p3282
aVsnoof
p3283
aVgroots
p3284
aVallang
p3285
aVgreintje
p3286
aVverstand
p3287
aVbraaf
p3288
aVgehangen
p3289
aVHulpeloos
p3290
aVbeschuldigde
p3291
aVgeluisterd
p3292
aVgevaarlijk
p3293
aVdwaas
p3294
aVHartverlamming
p3295
aVgezond
p3296
aVziel
p3297
aVdwaze
p3298
aVschamen
p3299
aVflauwe
p3300
aVonderdrukken
p3301
aVVerdraaid
p3302
aVzn
p3303
aVnekvel
p3304
aVpolitiebureau
p3305
aVsleuren
p3306
aVUitzoeken
p3307
aVk
p3308
aVDurf
p3309
aVwedden
p3310
aVvliegenpapier
p3311
aVgeweekt
p3312
aVmist
p3313
aVherbergen
p3314
aVvrede
p3315
aVbovenmenselijke
p3316
aVtaak
p3317
aVbenijdde
p3318
aVbesefte
p3319
aVzocht
p3320
aVheil
p3321
aVvlucht
p3322
aVijlings
p3323
aVvandaan
p3324
aVgestaan
p3325
aVMademoiselle
p3326
aVafkeurend
p3327
aVopnam
p3328
aVplezier
p3329
aVhangen
p3330
aVHangen
p3331
aVvierendelen
p3332
aVHem
p3333
aVaasgieren
p3334
aVportemonnee
p3335
aVveilig
p3336
aVverschijnt
p3337
aVhupsakee
p3338
aVontsnappen
p3339
aVeer
p3340
aVhoog
p3341
aVHaman
p3342
aVklinkt
p3343
aVenthousiaster
p3344
aVUw
p3345
aVwaardevol
p3346
aVheerst
p3347
aVbehuild
p3348
aVknipperde
p3349
aVnorse
p3350
aVroyaal
p3351
aVverhouding
p3352
aVhandschoenen
p3353
aVbeledigd
p3354
aVtrots
p3355
aVabsurd
p3356
aVuitleggen
p3357
aVbehield
p3358
aVzelfrespect
p3359
aVveroorloven
p3360
aVwaakte
p3361
aVwelzijn
p3362
aVbeschermde
p3363
aVhandige
p3364
aVprater
p3365
aVft
p3366
aVvoelt
p3367
aVvindt
p3368
aVlauw
p3369
aVenergie
p3370
aVmissen
p3371
aVvertrouwelijk
p3372
aVgebeurt
p3373
aVtegenkomen
p3374
aVhappig
p3375
aVontmoeten
p3376
aVvrijwel
p3377
aVwaardevolle
p3378
aVVanmorgen
p3379
aVtilde
p3380
aVstomverbaasd
p3381
aVverstijfde
p3382
aVaffaire
p3383
aVimmers
p3384
aVbeantwoordde
p3385
aVcategorisch
p3386
aVwerktuiglijk
p3387
aVwezenloos
p3388
aVUiterlijk
p3389
aVtrilden
p3390
aVbetekenis
p3391
aVbegrepen
p3392
aVrisico
p3393
aVverraadde
p3394
aVdurfde
p3395
aVTja
p3396
aVdriftig
p3397
aVkwaad
p3398
aVstomme
p3399
aVezel
p3400
aVmogen
p3401
aVstommeling
p3402
aVVernietigd
p3403
aVkansje
p3404
aVmiddel
p3405
aVonbeproefd
p3406
aVdolleman
p3407
aVbekomen
p3408
aVwegen
p3409
aVdolle
p3410
aVstier
p3411
aVIets
p3412
aVonbenullig
p3413
aVloslaten
p3414
aVspelen
p3415
aVexpressieve
p3416
aVwending
p3417
aVwar
p3418
aVDenkt
p3419
aVramp
p3420
aVveld
p3421
aVflinke
p3422
aVuitbarsting
p3423
aVlucht
p3424
aVzuiveren
p3425
aVprima
p3426
aVloyaal
p3427
aVwaardeer
p3428
aVonbehouwen
p3429
aVschijnt
p3430
aVconstant
p3431
aVondoordringbaar
p3432
aVgordijn
p3433
aVneergelaten
p3434
aVwaarachter
p3435
aVware
p3436
aVverborg
p3437
aVwerkelijkheid
p3438
aVteruggeroepen
p3439
aVbetogen
p3440
aVergernis
p3441
aVdiplomatieke
p3442
aVaangewend
p3443
aVbetwijfelde
p3444
aVzoveelste
p3445
aVconstateren
p3446
aVverloor
p3447
aVterzijde
p3448
aVspeel
p3449
aVdader
p3450
aVkaart
p3451
aVDacht
p3452
aVleiden
p3453
aVMij
p3454
aVteneergeslagen
p3455
aVmeelij
p3456
aVstandje
p3457
aVterecht
p3458
aVVoorlopig
p3459
aVLoop
p3460
aVopenslaande
p3461
aVpasseren
p3462
aVNeemt
p3463
aVHebt
p3464
aVmedicijnen
p3465
aVklaargemaakt
p3466
aVhoede
p3467
aVblos
p3468
aVgoedemorgen
p3469
aVmalen
p3470
aVvaker
p3471
aVglinsterden
p3472
aVsmaragden
p3473
aVideetje
p3474
aVgeneigd
p3475
aVfantastische
p3476
aVideen
p3477
aVblanco
p3478
aVverbaast
p3479
aVduim
p3480
aVwijzend
p3481
aVvermaakt
p3482
aVopgemaakt
p3483
aVverrassing
p3484
aVvoorgedrukte
p3485
aVWist
p3486
aVhiervan
p3487
aVaannemen
p3488
aVsceptisch
p3489
aVverwarrend
p3490
aVgeconcludeerd
p3491
aVoverkomen
p3492
aVspellen
p3493
aVformuleren
p3494
aVoverkomt
p3495
aVJuistEn
p3496
aVrand
p3497
aVvloeiblad
p3498
aVpapiertje
p3499
aVformuleringen
p3500
aVvoorkwamen
p3501
aVzekerheid
p3502
aVenzovoorts
p3503
aVdergelijke
p3504
aVvoorkomen
p3505
aVbevestigd
p3506
aVbijzonderheid
p3507
aValgehele
p3508
aVgeveegd
p3509
aVbruine
p3510
aVteelaarde
p3511
aVaarde
p3512
aVrommel
p3513
aVachterlaten
p3514
aVingeplant
p3515
aVtuinlieden
p3516
aVvoetafdrukken
p3517
aVhoogstwaarschijnlijk
p3518
aVondertekening
p3519
aVveronderstelling
p3520
aVvernuftig
p3521
aVtoegeven
p3522
aVconclusies
p3523
aVvrije
p3524
aVFantasie
p3525
aVknecht
p3526
aVmeester
p3527
aVliggende
p3528
aVwaarschijnlijke
p3529
aVachteraf
p3530
aVvastzat
p3531
aVklungelige
p3532
aVsleutelring
p3533
aVafgetrokken
p3534
aVteruggevonden
p3535
aVspiksplinternieuw
p3536
aVwaardoor
p3537
aVveronderstellen
p3538
aVoorspronkelijke
p3539
aVongetwijfeld
p3540
aVduidelijker
p3541
aVgisternacht
p3542
aVBad
p3543
aVshot
p3544
aVEngelsen
p3545
aVgenoemd
p3546
aVgetuigt
p3547
aVuitgekiend
p3548
aVexcuus
p3549
aVverzinsel
p3550
aVmogelijkheden
p3551
aVspeciale
p3552
aVdubieuze
p3553
aVsnuiter
p3554
aVstempelt
p3555
aVLaten
p3556
aVoverwoog
p3557
aVVolkomen
p3558
aVvernietigen
p3559
aVBewonderenswaardig
p3560
aVaangemoedigd
p3561
aVbovennatuurlijke
p3562
aVbinnenuit
p3563
aVsterkt
p3564
aVovertuiging
p3565
aVopendoen
p3566
aVdiezelfde
p3567
aVerge
p3568
aVopengedaan
p3569
aVgrendelen
p3570
aVaspect
p3571
aVwaarvan
p3572
aVduister
p3573
aVuitstek
p3574
aVtrotse
p3575
aVgesloten
p3576
aVheftig
p3577
aVmengen
p3578
aVZoiets
p3579
aVbeschaafde
p3580
aVVreemd
p3581
aVkreunde
p3582
aVtheorie
p3583
aVschieten
p3584
aVRussische
p3585
aVsigaretten
p3586
aVrookte
p3587
aVgebruikte
p3588
aVporseleinen
p3589
aVpotje
p3590
aVwegstopte
p3591
aVdorpsstraat
p3592
aVbuitenlucht
p3593
aVaangenaam
p3594
aVslungelige
p3595
aVstraat
p3596
aVmengeling
p3597
aVkijk
p3598
aVvoorover
p3599
aVTiens
p3600
aVMace
p3601
aVhierheen
p3602
aVaarzelen
p3603
aVresoluut
p3604
aVogenblikje
p3605
aVstoor
p3606
aVbevochtigde
p3607
aVdroge
p3608
aVspier
p3609
aVoverhand
p3610
aVfluisterde
p3611
aVKennelijk
p3612
aVopzettelijk
p3613
aVvaags
p3614
aVknikkend
p3615
aVafleggen
p3616
aVLangzaam
p3617
aVzwijgen
p3618
aVoplegde
p3619
aVnadenken
p3620
aVOngeveer
p3621
aVminuut
p3622
aVafgezien
p3623
aVbewegingen
p3624
aVwenkbrauwen
p3625
aVdoodstil
p3626
aVgroener
p3627
aVgerangschikt
p3628
aVgeclassificeerd
p3629
aVVerwarring
p3630
aVonduldbaar
p3631
aVingewikkeld
p3632
aVverbijstert
p3633
aVTen
p3634
aVhoudt
p3635
aVthermometer
p3636
aVzesentwintig
p3637
aVgraden
p3638
aVraadsel
p3639
aVopzichtig
p3640
aVgekleed
p3641
aVbril
p3642
aVmeent
p3643
aVkinderachtig
p3644
aVjury
p3645
aVschuldig
p3646
aVbevindt
p3647
aVvoorbedachten
p3648
aVrade
p3649
aVwankelen
p3650
aVtwaalf
p3651
aVstommelingen
p3652
aVfout
p3653
aVbegingen
p3654
aVvooronderzoek
p3655
aVplaatselijke
p3656
aVgebrand
p3657
aVverantwoordelijkheid
p3658
aVbekleedt
p3659
aVpraktisch
p3660
aVijskoud
p3661
aVtoestaan
p3662
aVergeren
p3663
aVamuseren
p3664
aVBij
p3665
aVgeliefd
p3666
aVverplicht
p3667
aVarresteren
p3668
aVredden
p3669
aVtouw
p3670
aVonderhoud
p3671
aVwandelingen
p3672
aVgepasseerd
p3673
aVschild
p3674
aVinlichtingen
p3675
aVingewonnen
p3676
aVboerderij
p3677
aVwoensdagavond
p3678
aVbezoek
p3679
aVterugliep
p3680
aVoudere
p3681
aVsluwe
p3682
aVoogjes
p3683
aVgretig
p3684
aVVrind
p3685
aVheren
p3686
aVstelletje
p3687
aVsluwer
p3688
aVHoezo
p3689
aVKomen
p3690
aVknipoogde
p3691
aVverstandhouding
p3692
aVNoem
p3693
aVie
p3694
aVfelle
p3695
aVweerzin
p3696
aVpikante
p3697
aVminderwaardiger
p3698
aVhoofdzaak
p3699
aVslimme
p3700
aVcombinatie
p3701
aVvergiste
p3702
aVtijdstip
p3703
aVsuggereerde
p3704
aVherhaaldelijk
p3705
aVstemmen
p3706
aVbinnengebracht
p3707
aVWapen
p3708
aVinleidende
p3709
aVafgehandeld
p3710
aVverrichtte
p3711
aVidentificeerde
p3712
aVdode
p3713
aVafgelegd
p3714
aVademloze
p3715
aVLondense
p3716
aVtoxicologen
p3717
aVvatte
p3718
aVresultaat
p3719
aVOntdaan
p3720
aVtermen
p3721
aVgevolge
p3722
aVTe
p3723
aVoordelen
p3724
aVhoeveelheid
p3725
aVvijftig
p3726
aVmilligram
p3727
aVbinnengekregen
p3728
aVvijfenzestig
p3729
aVonwaarschijnlijk
p3730
aVhuishoudelijke
p3731
aVdoeleinden
p3732
aVsommige
p3733
aVbestaan
p3734
aVbeperkende
p3735
aVverkoop
p3736
aVuitgewezen
p3737
aVuitrijden
p3738
aVaankwam
p3739
aVheengegaan
p3740
aVtyperend
p3741
aVOnder
p3742
aVvertraagd
p3743
aVanalyseren
p3744
aVNaast
p3745
aVgrinniken
p3746
aVhogelijk
p3747
aVEenvoudig
p3748
aVMen
p3749
aVproeven
p3750
aVzeventigduizend
p3751
aVaroma
p3752
aVweggewerkt
p3753
aVvoorEen
p3754
aVjuryleden
p3755
aVgold
p3756
aVKoffie
p3757
aVoverheersen
p3758
aVwerking
p3759
aVonbekende
p3760
aVgruizels
p3761
aVHiermee
p3762
aVbeeindigd
p3763
aVbevestigde
p3764
aVzelfmoord
p3765
aVverwierp
p3766
aVzwak
p3767
aVgenoot
p3768
aVuitstekende
p3769
aVevenwichtig
p3770
aVslaan
p3771
aVgetuige
p3772
aVgetuigenbank
p3773
aVstappen
p3774
aVweifelde
p3775
aVenigszins
p3776
aVbemoedigend
p3777
aVZeker
p3778
aVtoedracht
p3779
aVtoejuichen
p3780
aVverdere
p3781
aVopheldering
p3782
aVtoegeschreven
p3783
aVoorzaken
p3784
aVsterven
p3785
aVdaarvoor
p3786
aVtonicum
p3787
aVVol
p3788
aVwaarbij
p3789
aVregelmatig
p3790
aVdosis
p3791
aVmedicijn
p3792
aVtijde
p3793
aVopgeroepen
p3794
aVdenkbeeld
p3795
aVsuggereert
p3796
aVcumulatief
p3797
aVperiode
p3798
aVchronische
p3799
aVvooraf
p3800
aVonbewust
p3801
aVDrie
p3802
aVdoses
p3803
aVextra
p3804
aVklaarmaken
p3805
aVfles
p3806
aVleegdrinken
p3807
aVverwaarlozen
p3808
aVbetrekking
p3809
aVdoodsoorzaak
p3810
aVZeer
p3811
aVHetzelfde
p3812
aVjurylid
p3813
aVvergist
p3814
aVteniet
p3815
aVkortgeleden
p3816
aVondervraging
p3817
aVNadat
p3818
aVwakker
p3819
aVmiddags
p3820
aVkaarsrecht
p3821
aVwekker
p3822
aVaankleden
p3823
aVopgeschrikt
p3824
aVzwaars
p3825
aVgebeld
p3826
aVrennen
p3827
aVlastig
p3828
aVzweem
p3829
aVbrutaliteit
p3830
aVkraag
p3831
aVvanzelf
p3832
aVprobeert
p3833
aVwinnen
p3834
aVbleker
p3835
aVfeite
p3836
aVMogelijk
p3837
aVBedoelt
p3838
aVlichte
p3839
aVprivegesprekken
p3840
aVaanhouden
p3841
aVverdwaald
p3842
aVlosse
p3843
aVwaaruit
p3844
aVprivegesprek
p3845
aVtevoren
p3846
aVveroorzaken
p3847
aVVoldaan
p3848
aVovereen
p3849
aVgloed
p3850
aVopsloeg
p3851
aVstukken
p3852
aVgescheurd
p3853
aVconcentreerde
p3854
aVboek
p3855
aVtwijfelde
p3856
aVvermoedde
p3857
aVgewild
p3858
aVAmy
p3859
aVHill
p3860
aVwinkelmeisje
p3861
aVzeventiende
p3862
aVverkocht
p3863
aVEarl
p3864
aVaflegden
p3865
aVgemerkt
p3866
aVoorkussen
p3867
aVkennis
p3868
aVfacsimile
p3869
aVstrijdbijl
p3870
aVbegraven
p3871
aVgeliefde
p3872
aVvriendschap
p3873
aVvoorgelegd
p3874
aVbestudeerden
p3875
aVgerept
p3876
aVbewijst
p3877
aVverkrijgen
p3878
aVongelijk
p3879
aVomweg
p3880
aVDoen
p3881
aVmeeste
p3882
aVZelf
p3883
aVmin
p3884
aVgedoe
p3885
aVtijdverspillen
p3886
aVminachtende
p3887
aVPraten
p3888
aVHaastig
p3889
aVsensatie
p3890
aVAlbert
p3891
aVgediplomeerd
p3892
aVassistent
p3893
aVinleiding
p3894
aVonlangs
p3895
aVonbevoegd
p3896
aVAfgelopen
p3897
aVmaandagavond
p3898
aVMaandag
p3899
aVdinsdag
p3900
aVzestiende
p3901
aVspeld
p3902
aVwendden
p3903
aVbezwarende
p3904
aVgeuit
p3905
aVopstaan
p3906
aVmeesterlijk
p3907
aVvoorwendde
p3908
aVstreng
p3909
aVtoonbank
p3910
aVverkopen
p3911
aVongelukkige
p3912
aVkromp
p3913
aVineen
p3914
aVstrenge
p3915
aVhond
p3916
aVmenselijk
p3917
aVbewoners
p3918
aVklandizie
p3919
aVkoopt
p3920
aVregister
p3921
aVberisping
p3922
aVBesefte
p3923
aVstrop
p3924
aVnek
p3925
aVaangehaald
p3926
aVdoel
p3927
aVbehalve
p3928
aVherdershond
p3929
aVbuitenshuis
p3930
aVontkent
p3931
aVOntkent
p3932
aVoverhandigde
p3933
aVontken
p3934
aVwaarna
p3935
aVverschil
p3936
aVzestien
p3937
aVernstiger
p3938
aVtegengekomen
p3939
aVweigert
p3940
aVstellig
p3941
aVbeweert
p3942
aVwinkel
p3943
aVkopen
p3944
aVidioot
p3945
aVse
p3946
aVgearresteerd
p3947
aVontkenningen
p3948
aVonderwerp
p3949
aVdinsdagmiddag
p3950
aVverkeerd
p3951
aVingelicht
p3952
aVhooghartig
p3953
aVhierop
p3954
aVantwoorden
p3955
aVzweren
p3956
aVwoordenwisseling
p3957
aVvergissen
p3958
aVversteld
p3959
aVtriomfantelijk
p3960
aVschaars
p3961
aVverlicht
p3962
aVgebouwd
p3963
aVpijnen
p3964
aVbeschuldiging
p3965
aVintegendeel
p3966
aVuzelf
p3967
aVstootte
p3968
aVblond
p3969
aVVragend
p3970
aVoor
p3971
aVinspecteur
p3972
aVJames
p3973
aVJimmy
p3974
aVschot
p3975
aVpolitiemannen
p3976
aVdienstdoende
p3977
aVambtenaren
p3978
aVversleten
p3979
aVuitspraak
p3980
aVMoord
p3981
aVvoorbedachte
p3982
aVgepleegd
p3983
aVpersonen
p3984
aVuitkwamen
p3985
aVduwtje
p3986
aVbedoeling
p3987
aVsamengewerkt
p3988
aVAbercrombie
p3989
aVvervalsing
p3990
aVBrussel
p3991
aVkregen
p3992
aVHerinnert
p3993
aVBaron
p3994
aVschurk
p3995
aVpolitiemacht
p3996
aVEuropa
p3997
aVAntwerpen
p3998
aVdankzij
p3999
aVovergave
p4000
aVplezierige
p4001
aVherinneringen
p4002
aVophaalden
p4003
aVvoorgesteld
p4004
aVbeurt
p4005
aVvoorstelde
p4006
aVhoofdinspecteur
p4007
aVkneep
p4008
aVopendeed
p4009
aVheterdaad
p4010
aVbetrapt
p4011
aVstom
p4012
aVsnap
p4013
aVoplettend
p4014
aVKalmpjes
p4015
aVhecht
p4016
aVoordeel
p4017
aVabuis
p4018
aVtroeven
p4019
aVNietwaar
p4020
aVonderzoekend
p4021
aVaankijken
p4022
aVbuitenkant
p4023
aVbekeken
p4024
aVberoerde
p4025
aVactie
p4026
aVofficieel
p4027
aVhangt
p4028
aVtip
p4029
aVgetuigenverklaringen
p4030
aVtweemaal
p4031
aVgezinspeeld
p4032
aVtegendeel
p4033
aVuitgelachen
p4034
aVlaste
p4035
aVgelegd
p4036
aVterwille
p4037
aVweerhield
p4038
aVbevel
p4039
aVinhechtenisneming
p4040
aVmasker
p4041
aVeffen
p4042
aVNadenkend
p4043
aVmessieurs
p4044
aVsarcastisch
p4045
aVverstaander
p4046
aVfouten
p4047
aVvoer
p4048
aVarresteer
p4049
aVinleggen
p4050
aVafgewezen
p4051
aVComme
p4052
aVknipte
p4053
aVveelbetekenend
p4054
aVongelovig
p4055
aVconclusie
p4056
aVzakdoek
p4057
aVvegen
p4058
aVduivel
p4059
aVvoorheb
p4060
aVhouvast
p4061
aVdwingt
p4062
aVhandelen
p4063
aVverborgene
p4064
aVuitgerangeerde
p4065
aVpolitieman
p4066
aVbeding
p4067
aVgezworen
p4068
aVHaal
p4069
aVlangskomt
p4070
aVmeegaan
p4071
aVbeen
p4072
aVharte
p4073
aVnamens
p4074
aVziens
p4075
aVdetectives
p4076
aVwegliepen
p4077
aVongelovige
p4078
aVgrijns
p4079
aVuitbrengen
p4080
aVDieu
p4081
aVbenauwd
p4082
aVrechtzaal
p4083
aVkoppig
p4084
aVHm
p4085
aVuitleg
p4086
aVidioterie
p4087
aVImmers
p4088
aVberust
p4089
aVverdedigen
p4090
aVmanieren
p4091
aVaannemelijke
p4092
aVverhalen
p4093
aVbedenken
p4094
aVovertuigender
p4095
aVernst
p4096
aVdaarnet
p4097
aVbeweren
p4098
aVbewijsmateriaal
p4099
aVafdoende
p4100
aVEcht
p4101
aVonbevredigend
p4102
aVschiet
p4103
aVdaarbij
p4104
aVzolang
p4105
aVconcreet
p4106
aVweerlegd
p4107
aVaangetrokken
p4108
aVscheur
p4109
aVzweeg
p4110
aVleugen
p4111
aVbedrog
p4112
aVsufferd
p4113
aVpakt
p4114
aVbrutaal
p4115
aVverzonnen
p4116
aVverhaaltje
p4117
aVverdenking
p4118
aVbedenkt
p4119
aVverweer
p4120
aVschijn
p4121
aValibi
p4122
aVverlangen
p4123
aVkrankzinnige
p4124
aVplegen
p4125
aVverklaar
p4126
aVherkend
p4127
aVPardon
p4128
aVopzichtige
p4129
aVherkennen
p4130
aVveertien
p4131
aVciteerde
p4132
aVStel
p4133
aVtoneelspeler
p4134
aVongeduldig
p4135
aVsnoerde
p4136
aVklaarlichte
p4137
aVgeniaal
p4138
aVgelijkende
p4139
aVverbergt
p4140
aVspringende
p4141
aVkenmerken
p4142
aVverschijning
p4143
aVvoornaamste
p4144
aVinstinct
p4145
aVZichzelf
p4146
aVvoorbaat
p4147
aVuitgemaakte
p4148
aVverzekeren
p4149
aVtastbare
p4150
aVdaadwerkelijk
p4151
aVtwijfelen
p4152
aVdiens
p4153
aVgeboeid
p4154
aVwelsprekendheid
p4155
aVontnuchterd
p4156
aVtoestand
p4157
aVdubieus
p4158
aVzaakje
p4159
aVpeinsde
p4160
aVhardop
p4161
aVgewonnen
p4162
aVvisie
p4163
aVachterhoofd
p4164
aVKun
p4165
aVraden
p4166
aVverontschuldigend
p4167
aVErnstig
p4168
aVweifelend
p4169
aVlot
p4170
aVstuipen
p4171
aVjagen
p4172
aVopmerkzaam
p4173
aVaangekeken
p4174
aVovergaand
p4175
aVtijdens
p4176
aVgrotendeels
p4177
aVverwachtte
p4178
aVontwijkend
p4179
aVwelk
p4180
aVzenuwachtige
p4181
aVknaap
p4182
aVhein
p4183
aVnormale
p4184
aVsuggestie
p4185
aVgestudeerd
p4186
aVbehaald
p4187
aVGunst
p4188
aVgedacht
p4189
aVgedrag
p4190
aVa
p4191
aVet
p4192
aVtravers
p4193
aVvasthoudt
p4194
aVvakkennis
p4195
aVnature
p4196
aVfantasieloos
p4197
aVvertelt
p4198
aVwekt
p4199
aVverlagen
p4200
aVafluisteren
p4201
aVgesprekken
p4202
aVNieuwsgierig
p4203
aVhameren
p4204
aVnadere
p4205
aVvraagt
p4206
aVlijdt
p4207
aVslapeloosheid
p4208
aVomvat
p4209
aVoogje
p4210
aVaanmerkingen
p4211
aVmerkt
p4212
aVhooguit
p4213
aVvoorbehoud
p4214
aVuitvluchten
p4215
aVbeschouwing
p4216
aVspraken
p4217
aVAllebei
p4218
aVbezorgden
p4219
aVonplezierig
p4220
aVoprechtheid
p4221
aVscherpzinnigheid
p4222
aVgelegenheden
p4223
aVduiden
p4224
aVeigenwijs
p4225
aVonbehaaglijke
p4226
aVnieuwsgierige
p4227
aVpeilen
p4228
aVopeens
p4229
aVliegen
p4230
aVsliep
p4231
aVslaapt
p4232
aVkloppen
p4233
aVverwoed
p4234
aVsnor
p4235
aVdenkbeeldig
p4236
aVstofje
p4237
aVmouw
p4238
aVvoegden
p4239
aVonaangename
p4240
aVharde
p4241
aVheenweg
p4242
aVoverleg
p4243
aVgrootspraak
p4244
aVoptimistisch
p4245
aVgegronde
p4246
aVredenen
p4247
aVonschuld
p4248
aVconcrete
p4249
aVverzameld
p4250
aVbeleefd
p4251
aVrealiseerden
p4252
aVgelezen
p4253
aVmedespelers
p4254
aVMorgen
p4255
aVdagbladen
p4256
aVuitbazuinen
p4257
aVschreeuwende
p4258
aVkoppen
p4259
aVGEHEIMZINNIG
p4260
aVDRAMA
p4261
aVIN
p4262
aVESSEX
p4263
aVRIJKE
p4264
aVDAME
p4265
aVVERGIFTIGD
p4266
aVplaatjes
p4267
aVfotos
p4268
aVstilgezeten
p4269
aVwaarover
p4270
aVoverkwamen
p4271
aVjezelf
p4272
aVTegenover
p4273
aVbelast
p4274
aVgladde
p4275
aVschoten
p4276
aVuiteenzetting
p4277
aVofficiele
p4278
aVMesdames
p4279
aVlezing
p4280
aVweggeschoven
p4281
aVnoemde
p4282
aVrichtend
p4283
aVrust
p4284
aVad
p4285
aVrem
p4286
aVverkeert
p4287
aVgevaar
p4288
aVBegrijpt
p4289
aVweloverwogen
p4290
aVkring
p4291
aVadem
p4292
aVkomend
p4293
aVbeseft
p4294
aVongunstig
p4295
aVwetenschap
p4296
aVmaandagmiddag
p4297
aVdreigend
p4298
aVonmenselijk
p4299
aVSoit
p4300
aVbegeleidde
p4301
aVnaburige
p4302
aVzessen
p4303
aVAbbey
p4304
aVFarm
p4305
aVwoont
p4306
aVsnelst
p4307
aVbetrouwbaar
p4308
aVnesten
p4309
aVgewerkt
p4310
aVgerucht
p4311
aVlasterlijk
p4312
aVonjuist
p4313
aVoverslaande
p4314
aVkoste
p4315
aVvermijden
p4316
aVkoeien
p4317
aVlasterpraatjes
p4318
aVlasterpraat
p4319
aVriskeren
p4320
aVwegens
p4321
aVnagewezen
p4322
aVbelasterd
p4323
aVonheilspellende
p4324
aVwendend
p4325
aValstublieft
p4326
aVpraatje
p4327
aVDoet
p4328
aVBlijf
p4329
aVpost
p4330
aVafvragend
p4331
aVhemelsnaam
p4332
aVachterzat
p4333
aVuitgezonderd
p4334
aVMoest
p4335
aVtrouw
p4336
aVMinuten
p4337
aVRuim
p4338
aVrots
p4339
aVonhandig
p4340
aVlinkerhand
p4341
aVgebaren
p4342
aVkinderlijk
p4343
aVterneergeslagen
p4344
aVhaastte
p4345
aVtroosten
p4346
aVTrek
p4347
aVhardnekkig
p4348
aVlui
p4349
aVbewijsstukken
p4350
aVkijkend
p4351
aVPienter
p4352
aVSluw
p4353
aVverkeerde
p4354
aVavontuur
p4355
aVAllemachtig
p4356
aVtop
p4357
aVteen
p4358
aVdiner
p4359
aVhardhandig
p4360
aVdinsdagavond
p4361
aVBelangrijk
p4362
aVverandert
p4363
aVkandelaars
p4364
aValdoor
p4365
aVmompelend
p4366
aVhoofdweg
p4367
aVgelaten
p4368
aVbaan
p4369
aVprobleem
p4370
aVgefingeerde
p4371
aVaanwijzingen
p4372
aVontzenuwd
p4373
aVvastgesteld
p4374
aVuitgegeven
p4375
aVneergezet
p4376
aVTijdens
p4377
aVgeschonken
p4378
aVgedwongen
p4379
aVkaarten
p4380
aVZolang
p4381
aVaanzat
p4382
aVdubbel
p4383
aVjijzelf
p4384
aVkoester
p4385
aVongerijmd
p4386
aVverworpen
p4387
aVrondspoken
p4388
aVveronachtzamen
p4389
aVverdenk
p4390
aVstuntelig
p4391
aVvijfentwintig
p4392
aVrijd
p4393
aVopbellen
p4394
aVziekentransport
p4395
aVaanbood
p4396
aVaanvaard
p4397
aVperplex
p4398
aVheftigheid
p4399
aVverdenken
p4400
aVdwars
p4401
aVverbrand
p4402
aVgebeten
p4403
aVVindt
p4404
aVonnatuurlijk
p4405
aVafwijking
p4406
aVdegeneratie
p4407
aVevenwichtige
p4408
aVEngelse
p4409
aVnuchterheid
p4410
aVgezonde
p4411
aVgrenst
p4412
aVhaat
p4413
aVwaanzin
p4414
aVverstandigste
p4415
aVbetrokkenen
p4416
aVredeneren
p4417
aVargumenten
p4418
aVpleiten
p4419
aVertegen
p4420
aVredeneert
p4421
aVkip
p4422
aVevengoed
p4423
aVtoewijding
p4424
aVwenden
p4425
aVjegens
p4426
aVbovenop
p4427
aVgedachtengang
p4428
aVonoverkomelijk
p4429
aVmoordenares
p4430
aVoplevert
p4431
aVmotief
p4432
aVgeopperd
p4433
aVbekleedde
p4434
aVophield
p4435
aVideetjes
p4436
aVinzag
p4437
aVpositief
p4438
aVuitlaten
p4439
aVgedeeltelijk
p4440
aVpiekeren
p4441
aVHerinner
p4442
aVzijnde
p4443
aVverheven
p4444
aVherstelde
p4445
aVeerstvolgende
p4446
aVZoek
p4447
aVkoffiekop
p4448
aVbegrijpend
p4449
aVvissen
p4450
aVgeheimzinnig
p4451
aVgeanalyseerd
p4452
aVhierover
p4453
aVintrigeerde
p4454
aVnut
p4455
aVinzien
p4456
aVvanaf
p4457
aVbegrafenis
p4458
aVmaandags
p4459
aVapart
p4460
aVplannen
p4461
aVweggaat
p4462
aVEerst
p4463
aVbehandeld
p4464
aVvoorbarige
p4465
aVvervelend
p4466
aVtact
p4467
aVMa
p4468
aVzeggenschap
p4469
aVnagelaten
p4470
aVonverdraaglijke
p4471
aVgegund
p4472
aVZul
p4473
aVsuccessierechten
p4474
aVhelft
p4475
aVvaders
p4476
aVhoort
p4477
aVfinancieel
p4478
aVknoei
p4479
aValgemene
p4480
aVopgewekter
p4481
aVcharmant
p4482
aVhoopvolle
p4483
aVtoekomst
p4484
aVSchreeuwende
p4485
aVaparte
p4486
aVkadertjes
p4487
aVhuishouding
p4488
aVsubtiele
p4489
aVbeschikte
p4490
aVbespaard
p4491
aVkomkommertijd
p4492
aVmelden
p4493
aVstortten
p4494
aVkringen
p4495
aVgeheimzinnige
p4496
aVvoortdurend
p4497
aVbelegerd
p4498
aVjournalisten
p4499
aVconsequent
p4500
aVgeweigerd
p4501
aVbleven
p4502
aVrondhangen
p4503
aVcamera
p4504
aVaanslag
p4505
aVonvoorzichtig
p4506
aVleefden
p4507
aVvloek
p4508
aVonderzochten
p4509
aVondervroegen
p4510
aVwerkten
p4511
aVHadden
p4512
aVcategorie
p4513
aVonopgeloste
p4514
aVspeciaal
p4515
aVineens
p4516
aVverkleedkist
p4517
aVzolder
p4518
aVkostuums
p4519
aVgemaskerd
p4520
aVbal
p4521
aVLondon
p4522
aValsmaar
p4523
aVneuzen
p4524
aVbuitenlanders
p4525
aVdappere
p4526
aVslag
p4527
aVopgeheven
p4528
aVspecimen
p4529
aVdienstbode
p4530
aVuitsterven
p4531
aVontmoette
p4532
aVkist
p4533
aVenfin
p4534
aVantiek
p4535
aVkoper
p4536
aVbeslagen
p4537
aVboordevol
p4538
aVkledingstukken
p4539
aVtinten
p4540
aVHu
p4541
aVbodem
p4542
aVAsjeblieft
p4543
aVNieuw
p4544
aVpantry
p4545
aVzilver
p4546
aVpoetsen
p4547
aVFranse
p4548
aVhoffelijkheid
p4549
aVwenste
p4550
aVdoorgekeken
p4551
aVcollectie
p4552
aVTegenwoordig
p4553
aVkomiek
p4554
aVSjaal
p4555
aVPerzie
p4556
aVoosterse
p4557
aVkoning
p4558
aVmes
p4559
aVonderdanig
p4560
aVgeslepen
p4561
aVscimitar
p4562
aVapache
p4563
aVsoortement
p4564
aVbandiet
p4565
aVveranderen
p4566
aVNiemand
p4567
aVavonden
p4568
aVomhad
p4569
aVSjah
p4570
aVstrengen
p4571
aVwol
p4572
aVgeleend
p4573
aVdaarboven
p4574
aVbijgekomen
p4575
aVrooie
p4576
aVpruik
p4577
aVvoorzover
p4578
aVniks
p4579
aVharige
p4580
aVkurk
p4581
aVnikker
p4582
aVoch
p4583
aVZag
p4584
aVbijgeknipt
p4585
aVmodel
p4586
aVgeknipt
p4587
aVafgeknipte
p4588
aVharen
p4589
aVwonderlijk
p4590
aVgestopt
p4591
aVopviel
p4592
aVintelligent
p4593
aVintelligenter
p4594
aVflauw
p4595
aVgevleid
p4596
aVcompliment
p4597
aVschatte
p4598
aVaanstaarde
p4599
aVonschatbare
p4600
aVdiensten
p4601
aVwelkom
p4602
aVbondgenoot
p4603
aVgekwetst
p4604
aVsamenwerkt
p4605
aVsta
p4606
aVlijst
p4607
aVblaam
p4608
aVgezuiverd
p4609
aVallicht
p4610
aVknikje
p4611
aVgehoor
p4612
aVhuiskamer
p4613
aVgalg
p4614
aVhierom
p4615
aVGelooft
p4616
aVfraaie
p4617
aVverklaringen
p4618
aVbeinvloed
p4619
aVarsenicum
p4620
aVArsenicum
p4621
aVzier
p4622
aVgeloofd
p4623
aVgehaat
p4624
aVpest
p4625
aVbevestigt
p4626
aVWelk
p4627
aVplaatsvond
p4628
aVaankomst
p4629
aVbeweerde
p4630
aVschenken
p4631
aVbeging
p4632
aVbegaan
p4633
aVgefascineerd
p4634
aVbevestigend
p4635
aVgekant
p4636
aVnoemt
p4637
aVafwerende
p4638
aVgemeenschappelijk
p4639
aVuitsteken
p4640
aVondanks
p4641
aVbondgenote
p4642
aVdatgene
p4643
aVzeil
p4644
aVverheugd
p4645
aVwiens
p4646
aVdoofpot
p4647
aVstoppen
p4648
aVwaardigheid
p4649
aVOpeens
p4650
aVKoste
p4651
aVkosten
p4652
aVnakeek
p4653
aVnegeren
p4654
aVschijnen
p4655
aVkoeltjes
p4656
aVbesef
p4657
aVtast
p4658
aVWerkelijk
p4659
aVMeen
p4660
aVinlichten
p4661
aVvastbesloten
p4662
aVsportief
p4663
aVDitmaal
p4664
aVideeen
p4665
aVzonet
p4666
aVdoende
p4667
aVeventueel
p4668
aVinteressante
p4669
aVontdekkingen
p4670
aVuiteindelijke
p4671
aVverrassen
p4672
aVmomenten
p4673
aVeigenmachtig
p4674
aVcroquetveld
p4675
aVdoelloos
p4676
aVballen
p4677
aVhamer
p4678
aVAnders
p4679
aVWeliswaar
p4680
aVvleide
p4681
aVverhoor
p4682
aValgauw
p4683
aVooghoeken
p4684
aVgadesloeg
p4685
aVoprechte
p4686
aVWelke
p4687
aVinformeren
p4688
aVafdeling
p4689
aVAntiek
p4690
aVWorcester
p4691
aVkenner
p4692
aVporselein
p4693
aVgenot
p4694
aVlaars
p4695
aVterugriep
p4696
aVlunchen
p4697
aVzwijgende
p4698
aVovereenkomst
p4699
aVneutrale
p4700
aVonderwerpen
p4701
aVkaas
p4702
aVcrackers
p4703
aVmadame
p4704
aVonprettige
p4705
aVoproep
p4706
aVlangzamerhand
p4707
aVspreekwoordelijk
p4708
aVGaat
p4709
aVgeschoven
p4710
aVklemde
p4711
aVbedoelde
p4712
aVmeende
p4713
aVgeconstateerd
p4714
aVgeklemd
p4715
aVinkwam
p4716
aVopgelet
p4717
aVmengde
p4718
aVverslagen
p4719
aVmeeging
p4720
aVbijster
p4721
aVbedoeld
p4722
aVgehoopt
p4723
aVgereserveerde
p4724
aVwarmte
p4725
aVgerechtvaardigde
p4726
aVboosheid
p4727
aVzakte
p4728
aVontdooide
p4729
aVBegreep
p4730
aVverbood
p4731
aVijverig
p4732
aVschilderijen
p4733
aVItalie
p4734
aVkijkje
p4735
aVwoensdag
p4736
aVzaterdags
p4737
aVonthouden
p4738
aVVrouwen
p4739
aVpresteren
p4740
aVStellig
p4741
aVzwaar
p4742
aVexamen
p4743
aVLogisch
p4744
aVverantwoordelijk
p4745
aVvermoed
p4746
aVkastje
p4747
aVuitgaan
p4748
aVStaat
p4749
aVvillaatje
p4750
aVgearriveerd
p4751
aVterugga
p4752
aVkalmpjes
p4753
aVkoele
p4754
aVbomen
p4755
aVzuchtje
p4756
aVwind
p4757
aVvogels
p4758
aVgedempt
p4759
aVdooie
p4760
aVreusachtige
p4761
aVbeuk
p4762
aVwelwillende
p4763
aVvergaf
p4764
aVbelachelijke
p4765
aVgeheimhouding
p4766
aVgaapte
p4767
aVonwezenlijk
p4768
aVschreeuwen
p4769
aVOnmiddellijk
p4770
aVvervelende
p4771
aVbewegen
p4772
aVgerukt
p4773
aVbekritiseren
p4774
aVzaterdag
p4775
aVzwerf
p4776
aVdorpsroddel
p4777
aVrondhangt
p4778
aVPoolse
p4779
aVJood
p4780
aVtikje
p4781
aVjoods
p4782
aVbloed
p4783
aVsaaiheid
p4784
aVEngelsman
p4785
aVsaai
p4786
aVVurige
p4787
aVijzige
p4788
aVvuurrood
p4789
aVsmekend
p4790
aVhieruit
p4791
aVuitdrukkelijke
p4792
aVTart
p4793
aVontzeg
p4794
aVkritiek
p4795
aVafkeuren
p4796
aVonvaste
p4797
aVuitgerekend
p4798
aVkeuze
p4799
aVonvast
p4800
aVstrekte
p4801
aVzachtere
p4802
aVbruusk
p4803
aVverliefd
p4804
aVeeuwige
p4805
aVjeugd
p4806
aVEgyptische
p4807
aVsfinx
p4808
aVglimlachen
p4809
aVachterliet
p4810
aVNogal
p4811
aVostentatief
p4812
aVtakken
p4813
aVGelukkig
p4814
aVvanzelfsprekend
p4815
aVafgeleverd
p4816
aVWonderlijke
p4817
aVbeschouwd
p4818
aVschuilen
p4819
aVVind
p4820
aVafschuwelijke
p4821
aVMannen
p4822
aVopduiken
p4823
aVmenigte
p4824
aVloeren
p4825
aVgruwelkamer
p4826
aVMadame
p4827
aVTussaud
p4828
aVgratis
p4829
aVbar
p4830
aVheengaat
p4831
aVword
p4832
aVbeslopen
p4833
aVrotjournalisten
p4834
aVaangegaapt
p4835
aVidioten
p4836
aVnachtmerrie
p4837
aVbehoorlijke
p4838
aVSnel
p4839
aVtoespelingen
p4840
aVfatale
p4841
aVvoorging
p4842
aVriskant
p4843
aVluister
p4844
aVBegrijp
p4845
aVerkenning
p4846
aVwerelds
p4847
aVsmaakloos
p4848
aVonbekend
p4849
aVvurig
p4850
aVhandlanger
p4851
aVvrouwen
p4852
aVglans
p4853
aVtypisch
p4854
aVvrouwelijk
p4855
aVwapen
p4856
aVgedreigd
p4857
aVkaak
p4858
aVraadselen
p4859
aVonafgemaakte
p4860
aVongewroken
p4861
aVsmaad
p4862
aVGewoon
p4863
aVveiliger
p4864
aVnaderhand
p4865
aVkletsen
p4866
aVautoriteiten
p4867
aVopgraving
p4868
aVgelasten
p4869
aVverkeren
p4870
aVreputatie
p4871
aVboon
p4872
aVspreekt
p4873
aVpratend
p4874
aVDichtbij
p4875
aVklonken
p4876
aVhare
p4877
aVbezichtigen
p4878
aVschat
p4879
aVgrapjas
p4880
aVbroche
p4881
aVsjaaltje
p4882
aVafhalen
p4883
aVvastmaken
p4884
aVmanie
p4885
aVzwegen
p4886
aVgedempte
p4887
aVsympathie
p4888
aVvoorziening
p4889
aVaandringen
p4890
aVwegging
p4891
aVopgewekte
p4892
aVtrek
p4893
aVkwaadheid
p4894
aVverdraaide
p4895
aVbinnenstebuiten
p4896
aVgekeerd
p4897
aVondersteboven
p4898
aVschoon
p4899
aVdonder
p4900
aVbemoeials
p4901
aVmopperde
p4902
aVwandelen
p4903
aVslenterden
p4904
aVblikken
p4905
aVonttrokken
p4906
aVkapje
p4907
aVzonlicht
p4908
aVgouden
p4909
aVcharmanter
p4910
aVwelwillend
p4911
aVrekende
p4912
aVplukte
p4913
aVJou
p4914
aVhaten
p4915
aVuitstaan
p4916
aVDaarin
p4917
aVvlieg
p4918
aVsmeekt
p4919
aVbezielde
p4920
aVtreffen
p4921
aVmedelijden
p4922
aVeenzaamheid
p4923
aVTrouw
p4924
aVOnbewust
p4925
aVprobaat
p4926
aVstuiten
p4927
aVHindert
p4928
aVaanzoek
p4929
aVVolgende
p4930
aVopgemonterd
p4931
aVlachbui
p4932
aVnadacht
p4933
aVTegelijkertijd
p4934
aVsussen
p4935
aVvertrouwd
p4936
aVbordje
p4937
aVKamers
p4938
aVhuur
p4939
aVverbleef
p4940
aVGoedemiddag
p4941
aVbejaarde
p4942
aVarrestatie
p4943
aVvoorzien
p4944
aVwaarschijnlijkheid
p4945
aVintussen
p4946
aVschoof
p4947
aVtegenop
p4948
aVbereikbaar
p4949
aVbezield
p4950
aVopgaaf
p4951
aVreizen
p4952
aVOndanks
p4953
aVdunk
p4954
aVgesuggereerd
p4955
aVbeoordeling
p4956
aVfloot
p4957
aVschel
p4958
aVtanden
p4959
aVmeedeelde
p4960
aVnoodzaak
p4961
aVopensloeg
p4962
aVkolom
p4963
aVvolgeschreven
p4964
aVonbegrijpelijk
p4965
aVveronderstelde
p4966
aVarrestaties
p4967
aVverricht
p4968
aVhiertoe
p4969
aVBonjour
p4970
aVHoor
p4971
aVkust
p4972
aVnabijheid
p4973
aVvertoning
p4974
aVaannemelijk
p4975
aVspionage
p4976
aVSpionage
p4977
aVademloos
p4978
aVmeewarige
p4979
aVtoewierp
p4980
aVspion
p4981
aVgat
p4982
aVontij
p4983
aVspoken
p4984
aVDuitser
p4985
aVgeboorte
p4986
aVpraktijk
p4987
aVuitoefent
p4988
aVaanziet
p4989
aVgenaturaliseerd
p4990
aVintelligente
p4991
aVpatriot
p4992
aVBedenk
p4993
aVfilosofisch
p4994
aVgeroddeld
p4995
aVuitspookte
p4996
aVonopgemerkt
p4997
aVvreugde
p4998
aVaangename
p4999
aVijdel
p5000
aVgemijmer
p5001
aVonderbroken
p5002
aVbinnenkomst
p5003
aVvergewissen
p5004
aVkleerkast
p5005
aVvouwde
p5006
aVspreidde
p5007
aVvoorletter
p5008
aVJ
p5009
aVL
p5010
aVstoffig
p5011
aVtijdje
p5012
aVBovenaan
p5013
aVstempel
p5014
aVfirma
p5015
aVgeadresseerd
p5016
aVWeledelgeboren
p5017
aVonduidelijke
p5018
aVT
p5019
aVMooi
p5020
aVopvouwde
p5021
aVTamelijk
p5022
aVvermoedens
p5023
aVpakpapier
p5024
aVPakpapier
p5025
aVdozen
p5026
aVkwijt
p5027
aVbewaard
p5028
aVFrans
p5029
aVun
p5030
aVsil
p5031
aVplait
p5032
aVrumoer
p5033
aVblijkt
p5034
aVbel
p5035
aVmuis
p5036
aVdraad
p5037
aVdoorgebeten
p5038
aVDinsdagmorgen
p5039
aVtriomfantelijke
p5040
aVvlees
p5041
aVtroost
p5042
aVren
p5043
aVspring
p5044
aVwildeman
p5045
aVomdraaide
p5046
aVwolken
p5047
aVgekkigheid
p5048
aVopgegeven
p5049
aVgetikt
p5050
aVSoms
p5051
aVstapelgek
p5052
aVmerk
p5053
aVverdrietig
p5054
aVspeken
p5055
aVtactvol
p5056
aVverspilde
p5057
aVonvriendelijk
p5058
aVzwakjes
p5059
aVstotteren
p5060
aVdaarover
p5061
aVonderwijl
p5062
aVsoepele
p5063
aVbewegend
p5064
aVstilstaan
p5065
aVkortom
p5066
aVbiechtvader
p5067
aVopgetogen
p5068
aVbegonnen
p5069
aVbuitenlands
p5070
aVslaapdrank
p5071
aVKort
p5072
aVCorps
p5073
aVConsulaire
p5074
aVOveral
p5075
aVdrieentwintigste
p5076
aVideaal
p5077
aVgegooid
p5078
aVblijde
p5079
aVvoorbije
p5080
aVtantes
p5081
aVYorkshire
p5082
aVhuiverde
p5083
aVgrootgebracht
p5084
aVbekrompenheid
p5085
aVeentonigheid
p5086
aVpartij
p5087
aVuitweg
p5088
aVondraaglijke
p5089
aVtrouwden
p5090
aVfrons
p5091
aVingespannen
p5092
aVpasten
p5093
aVBijna
p5094
aVtegenwerping
p5095
aVgemompeld
p5096
aVuitmaakt
p5097
aVRustig
p5098
aVsteek
p5099
aVvisioen
p5100
aVwijde
p5101
aVruimten
p5102
aVmaagdelijke
p5103
aVwouden
p5104
aVvrijheid
p5105
aVtemperament
p5106
aVlevend
p5107
aVwezen
p5108
aVzomin
p5109
aVgetemd
p5110
aVbeschaving
p5111
aVschuwe
p5112
aVbergen
p5113
aVoord
p5114
aVoverhaast
p5115
aVspotte
p5116
aVvoorzichtigheid
p5117
aVwaarvoor
p5118
aVafbijten
p5119
aVbevriezen
p5120
aVdelen
p5121
aVWaarvan
p5122
aVBlijkbaar
p5123
aVDuitse
p5124
aVkoud
p5125
aVVond
p5126
aVijzig
p5127
aVtoneelspelen
p5128
aVproppen
p5129
aVvierde
p5130
aVvruchteloos
p5131
aVmededeling
p5132
aVuitgever
p5133
aVmuziek
p5134
aVontvangst
p5135
aVcheque
p5136
aVserie
p5137
aVvolksliederen
p5138
aVcorrespondentie
p5139
aVmysterie
p5140
aVlossen
p5141
aVwandelde
p5142
aVjongedame
p5143
aVmorgenochtend
p5144
aVopzoekt
p5145
aVbehandelde
p5146
aVnonchalant
p5147
aVbesluiteloos
p5148
aVnogmaals
p5149
aVbegroet
p5150
aVWilde
p5151
aVbeslissing
p5152
aVTo
p5153
aVspeak
p5154
aVor
p5155
aVnot
p5156
aVto
p5157
aVShakespeare
p5158
aVthat
p5159
aVthe
p5160
aVcitaat
p5161
aVverbeteren
p5162
aVbelangrijks
p5163
aVaangebroken
p5164
aVborst
p5165
aVpassend
p5166
aVeffect
p5167
aVbederven
p5168
aVoverbracht
p5169
aVchagrijnige
p5170
aVintelligentie
p5171
aVwaagde
p5172
aVpoging
p5173
aVverwijt
p5174
aVzeef
p5175
aVspeet
p5176
aVuitgeplozen
p5177
aVtikte
p5178
aVcellen
p5179
aVvingerafdrukken
p5180
aVgenummerd
p5181
aVBeschrijf
p5182
aVAandachtig
p5183
aVafdrukken
p5184
aVvergrotingen
p5185
aVnummer
p5186
aVNummer
p5187
aVkleiner
p5188
aVtwijfelt
p5189
aVidentiek
p5190
aVborg
p5191
aVvergelijkingsmateriaal
p5192
aVgecompliceerder
p5193
aVvergroting
p5194
aVuitrusting
p5195
aVwelbekend
p5196
aVfoto
p5197
aVreuze
p5198
aVFoto
p5199
aVtwijg
p5200
aVtak
p5201
aVontkennend
p5202
aVbalkon
p5203
aVLang
p5204
aVbevredigen
p5205
aVneuriede
p5206
aVwijsje
p5207
aVHydrochloride
p5208
aVZuivere
p5209
aVhydrochloride
p5210
aVpillen
p5211
aVgangbare
p5212
aVsindsdien
p5213
aVgeconserveerd
p5214
aVklaargespeeld
p5215
aVgewoonste
p5216
aVbezoekers
p5217
aVtoegestaan
p5218
aVzodoende
p5219
aVvele
p5220
aVexcuses
p5221
aVgeelimineerd
p5222
aVopgewektheid
p5223
aVderde
p5224
aVtegenaan
p5225
aVhuisgenoten
p5226
aVophalen
p5227
aVvereren
p5228
aVuitnodigt
p5229
aVbedenk
p5230
aVpapa
p5231
aVbeschikking
p5232
aVdiepere
p5233
aVvereerd
p5234
aVpraatte
p5235
aVomgeslagen
p5236
aVscherpe
p5237
aVknoopte
p5238
aVhoger
p5239
aVklagend
p5240
aVreus
p5241
aVvoordeur
p5242
aVhuilde
p5243
aVvangen
p5244
aVtussenliggende
p5245
aVweken
p5246
aVuitgingen
p5247
aVschaarde
p5248
aVonverbiddelijk
p5249
aVvocht
p5250
aVtegenspoed
p5251
aVgoeds
p5252
aVwaars
p5253
aVjaloezie
p5254
aVJaloezie
p5255
aVjaloers
p5256
aVgewikt
p5257
aVgewogen
p5258
aVgrinnikte
p5259
aVscheiden
p5260
aVhint
p5261
aVontdaan
p5262
aVdoorgegeven
p5263
aVvrijgesproken
p5264
aVslim
p5265
aVbewezen
p5266
aVuitgeschakeld
p5267
aVveroordeeld
p5268
aVontbrekende
p5269
aVSomber
p5270
aVbrokstuk
p5271
aVallesbehalve
p5272
aVoprecht
p5273
aVstelligste
p5274
aVontkend
p5275
aVzitting
p5276
aVpolitierechtbank
p5277
aVaanklacht
p5278
aVrechtskundige
p5279
aVadviseurs
p5280
aVaanraden
p5281
aVverdediging
p5282
aVerbuiten
p5283
aVOfficieel
p5284
aVTotdat
p5285
aVschermen
p5286
aVgemeen
p5287
aVuitgeslapen
p5288
aVgewetenloos
p5289
aVbeschikken
p5290
aVglippen
p5291
aVgrijnsde
p5292
aVbreed
p5293
aVoren
p5294
aVklinken
p5295
aVbewering
p5296
aVaanklager
p5297
aVweerleggen
p5298
aVvernietigde
p5299
aVvooruitziende
p5300
aVherhalingen
p5301
aVvervelen
p5302
aVslechts
p5303
aVvolstaan
p5304
aVvermelden
p5305
aVuitgesteld
p5306
aVopenbare
p5307
aVhof
p5308
aVverwezen
p5309
aVseptember
p5310
aVKensington
p5311
aVfamiliekring
p5312
aVopgenomen
p5313
aVIkzelf
p5314
aVMinisterie
p5315
aVOorlog
p5316
aVNaarmate
p5317
aVverstreken
p5318
aVzenuwen
p5319
aVbeklaagdenbank
p5320
aVOld
p5321
aVBailey
p5322
aVbeschuldigd
p5323
aVAgnes
p5324
aVontkende
p5325
aVSir
p5326
aVErnest
p5327
aVPhilips
p5328
aVKroon
p5329
aVonmiskenbaar
p5330
aVbloede
p5331
aVliefhebbende
p5332
aVnietsvermoedende
p5333
aVVanaf
p5334
aVjongensjaren
p5335
aVgesteund
p5336
aVgeleefd
p5337
aVomringd
p5338
aVvrijgevige
p5339
aVvoornemen
p5340
aVlosbol
p5341
aVverkwister
p5342
aVfinanciele
p5343
aVschulden
p5344
aVgebukt
p5345
aVechtgenote
p5346
aVlandbouwer
p5347
aVomgeving
p5348
aVore
p5349
aVhierna
p5350
aVontstond
p5351
aVvermomming
p5352
aVgedragen
p5353
aVwerpen
p5354
aVafgunst
p5355
aVkoesterde
p5356
aVverschaffen
p5357
aVzoon
p5358
aVvoorhanden
p5359
aVaantoonden
p5360
aVhierin
p5361
aVbegunstigd
p5362
aVzijnen
p5363
aVgedreven
p5364
aVaannemelijker
p5365
aVtemeer
p5366
aVoproepen
p5367
aVaangegrepen
p5368
aVrechtsgeldig
p5369
aVmedicijnflesje
p5370
aVvermeende
p5371
aVbeslissen
p5372
aVbelastende
p5373
aVdoorslaggevend
p5374
aVsubtiel
p5375
aVondenkbaar
p5376
aVconformeren
p5377
aVwiste
p5378
aVcharge
p5379
aVmerendeel
p5380
aVdiegenen
p5381
aVafgenomen
p5382
aVberucht
p5383
aVtiranniseerde
p5384
aVvertraging
p5385
aVaangereikt
p5386
aVverdediger
p5387
aVondervraagd
p5388
aVVerscheidene
p5389
aVbevestigden
p5390
aVlegden
p5391
aVbetreffende
p5392
aVmedeondertekenen
p5393
aVstelligheid
p5394
aVgleed
p5395
aVglimlachje
p5396
aVnutteloos
p5397
aVdapper
p5398
aVverzet
p5399
aVontkennen
p5400
aVjuni
p5401
aVpakje
p5402
aVpakjes
p5403
aVWales
p5404
aVnagezonden
p5405
aVontfermd
p5406
aVbruin
p5407
aVstoffige
p5408
aVwerknemer
p5409
aVgenoteerd
p5410
aVopgestuurd
p5411
aVlog
p5412
aVWaarvandaan
p5413
aVadres
p5414
aVgezonden
p5415
aVroofdier
p5416
aVpoststempel
p5417
aVgelet
p5418
aVbriefhoofd
p5419
aVgepost
p5420
aVElizabeth
p5421
aVherinnerd
p5422
aVherstellen
p5423
aVwestelijke
p5424
aVingekeken
p5425
aVmeedogenloze
p5426
aVmacht
p5427
aVhopeloos
p5428
aVvoldane
p5429
aVverdaagd
p5430
aVbitterheid
p5431
aVberoerd
p5432
aVIeder
p5433
aVverdraaien
p5434
aVtroostend
p5435
aVrollen
p5436
aVomgekeerd
p5437
aVaanstuurde
p5438
aVschuldige
p5439
aVaanstuurt
p5440
aVbroers
p5441
aVslagen
p5442
aVhervat
p5443
aVdoorzochten
p5444
aVverstopt
p5445
aVondergoed
p5446
aVmontuur
p5447
aVoverlegd
p5448
aVblauw
p5449
aVglas
p5450
aVkristalpoeder
p5451
aVVERGIF
p5452
aVlangwerpig
p5453
aVchequeboek
p5454
aVspiegel
p5455
aVlies
p5456
aVnalaat
p5457
aVHierdoor
p5458
aVvoltooide
p5459
aVkruisverhoor
p5460
aVdoorzocht
p5461
aVDinsdag
p5462
aVvierentwintig
p5463
aVvoorwerpen
p5464
aVbewaart
p5465
aVstapel
p5466
aVwaaronder
p5467
aVwinter
p5468
aVwarmste
p5469
aVzomer
p5470
aVwinterondergoed
p5471
aVneergelegd
p5472
aVVerklaringen
p5473
aVpil
p5474
aVingegeven
p5475
aVbesteld
p5476
aVbewuste
p5477
aVnegenentwintigste
p5478
aVkin
p5479
aVstrijdlustig
p5480
aVnegenentwintig
p5481
aVlompe
p5482
aVjoeg
p5483
aVgemompel
p5484
aVafkeuring
p5485
aVclient
p5486
aVBeantwoord
p5487
aVonheilspellend
p5488
aVbereikt
p5489
aVzeventien
p5490
aVgast
p5491
aVslingerde
p5492
aVtirannieke
p5493
aVaangelegd
p5494
aVBeslist
p5495
aVZulke
p5496
aVinteresse
p5497
aVtoegeeft
p5498
aVtoegaf
p5499
aVerbarmelijk
p5500
aVrechtszaal
p5501
aVopschudding
p5502
aVverwekt
p5503
aVTal
p5504
aVmodieus
p5505
aVgeklede
p5506
aVdames
p5507
aVdrommen
p5508
aVaanwezig
p5509
aVstaken
p5510
aVhoofden
p5511
aVdreigde
p5512
aVzaal
p5513
aVontruimen
p5514
aVAllen
p5515
aVverklaarden
p5516
aVeenstemmig
p5517
aVverdraaiing
p5518
aVpleidooi
p5519
aVkracht
p5520
aVnadrukkelijke
p5521
aVervaring
p5522
aVmeegemaakt
p5523
aVgronden
p5524
aVmateriaal
p5525
aVuitsluitend
p5526
aVonpartijdig
p5527
aVaangetoond
p5528
aVFeitelijk
p5529
aVmoedwillige
p5530
aVvoeren
p5531
aVondersteuning
p5532
aVFirma
p5533
aVopenlijk
p5534
aVtoegegeven
p5535
aVschromelijk
p5536
aVconfrater
p5537
aVachteloos
p5538
aVvoorstelling
p5539
aVfeitelijk
p5540
aVvoorgevallen
p5541
aVvernam
p5542
aVbetrouwbare
p5543
aVzijde
p5544
aVconcludeerde
p5545
aVbinnengegaan
p5546
aVvermomd
p5547
aVeenzame
p5548
aVSpinney
p5549
aVgenaamd
p5550
aVanoniem
p5551
aVontboden
p5552
aVchantage
p5553
aVgestelde
p5554
aVeisen
p5555
aVaangewezen
p5556
aVbegeven
p5557
aVvergeefs
p5558
aVgewacht
p5559
aVterugweg
p5560
aVbevestigen
p5561
aVrechten
p5562
aVbegunstigde
p5563
aVvervallen
p5564
aVgeworpen
p5565
aVvestigen
p5566
aVsterker
p5567
aVverzoeken
p5568
aVkweet
p5569
aVbekwame
p5570
aVleiding
p5571
aVgeloofwaardig
p5572
aVanonieme
p5573
aVontvangen
p5574
aVbestudering
p5575
aVoverhandigd
p5576
aVbereidheid
p5577
aVverleende
p5578
aVvolstrekt
p5579
aVoneens
p5580
aVverwerpelijk
p5581
aVprotest
p5582
aVgunstige
p5583
aVenigerlei
p5584
aVverwonderlijk
p5585
aVgedeelten
p5586
aVslecht
p5587
aVondoordachte
p5588
aVgesnuif
p5589
aVongeloof
p5590
aVstaaltje
p5591
aVZegt
p5592
aVgelijkenis
p5593
aVvertoont
p5594
aVslordig
p5595
aVdenkbeeldige
p5596
aVongeloofwaardige
p5597
aVstaven
p5598
aVstille
p5599
aVkocht
p5600
aVtekende
p5601
aVoverweging
p5602
aVplicht
p5603
aVdesondanks
p5604
aVontzet
p5605
aVmeineed
p5606
aVHierna
p5607
aVontmoedigd
p5608
aVinformeerde
p5609
aVklaarblijkelijk
p5610
aVkaartenhuizen
p5611
aVbouwen
p5612
aVkinds
p5613
aVkalmeert
p5614
aVbezigheid
p5615
aVvereist
p5616
aVnauwkeurige
p5617
aVvaste
p5618
aVopgebouwde
p5619
aVineenstorten
p5620
aVverdiepingen
p5621
aVwiskundige
p5622
aVnauwkeurigheid
p5623
aVkaartenhuis
p5624
aVgroeien
p5625
aVreinste
p5626
aVtrillen
p5627
aVgeweldig
p5628
aVspulletjes
p5629
aVrijtje
p5630
aVslaken
p5631
aVrauwe
p5632
aVmeesterwerk
p5633
aVopgebouwd
p5634
aVdiepste
p5635
aVellende
p5636
aVfoie
p5637
aVEnorm
p5638
aVschreeuwde
p5639
aVgarage
p5640
aVwijs
p5641
aVagent
p5642
aVaangehouden
p5643
aVontmoetten
p5644
aVhulpeloos
p5645
aVwegrende
p5646
aVzondagochtend
p5647
aVverstreek
p5648
aVaanhoudend
p5649
aVtoeteren
p5650
aVvanwaar
p5651
aVmetamorfose
p5652
aVondergaan
p5653
aVstraalde
p5654
aVbuiging
p5655
aVsalon
p5656
aVtriest
p5657
aVcarte
p5658
aVblanche
p5659
aVstralend
p5660
aVair
p5661
aVpopulaire
p5662
aVspreker
p5663
aVMessieurs
p5664
aVmesdames
p5665
aVdientengevolge
p5666
aVstof
p5667
aVaangrenzende
p5668
aVhechtte
p5669
aVafgescheurd
p5670
aVmeegedeeld
p5671
aVdaaropvolgende
p5672
aVverklaard
p5673
aVbaat
p5674
aVverifieren
p5675
aVkwasi
p5676
aVomver
p5677
aValarm
p5678
aVvlugge
p5679
aVslaat
p5680
aVgooit
p5681
aVschrikt
p5682
aVtapijt
p5683
aVspat
p5684
aVvliegt
p5685
aVReeds
p5686
aVverbindt
p5687
aVBliksemsnel
p5688
aVrent
p5689
aVbegint
p5690
aVgewekte
p5691
aVbonzen
p5692
aVmeegekomen
p5693
aVonthullen
p5694
aVzuiverde
p5695
aVDesondanks
p5696
aVaanleggen
p5697
aVezels
p5698
aVtemperatuur
p5699
aVaanmaken
p5700
aVbezuinigingen
p5701
aVweggegooid
p5702
aVplaatsgevonden
p5703
aVbezag
p5704
aVgezichtshoek
p5705
aVweerhouden
p5706
aVaccent
p5707
aVbekent
p5708
aVpsychologisch
p5709
aVvaststond
p5710
aVbetrof
p5711
aVhaarzelf
p5712
aVreconstrueren
p5713
aVdreigt
p5714
aVboekje
p5715
aVgeldigheid
p5716
aVgunst
p5717
aVtreft
p5718
aVopdracht
p5719
aVsteken
p5720
aVcomplete
p5721
aVommekeer
p5722
aVverlangend
p5723
aVstuitte
p5724
aVbestemd
p5725
aVvasthouden
p5726
aVschriftelijk
p5727
aVontrouw
p5728
aVeiste
p5729
aVverzekerde
p5730
aVgeloofde
p5731
aVgereserveerdheid
p5732
aVwaanzinnig
p5733
aVque
p5734
aVhierbij
p5735
aVzoekgeraakt
p5736
aVberaamde
p5737
aVwaartoe
p5738
aVscharnieren
p5739
aVgeolied
p5740
aVgeruisloos
p5741
aVdichtging
p5742
aVveiligst
p5743
aVbedwelmd
p5744
aVBedwelmd
p5745
aVMais
p5746
aVoui
p5747
aVtumult
p5748
aVkabaal
p5749
aVbewusteloosheid
p5750
aVverdovend
p5751
aVmonsters
p5752
aVgeteld
p5753
aVweggenomen
p5754
aVZes
p5755
aVgedronken
p5756
aVvermist
p5757
aVkoffiekan
p5758
aVwetend
p5759
aVopruimde
p5760
aVzesde
p5761
aVkapot
p5762
aVgestaafd
p5763
aVgevestigd
p5764
aVanalist
p5765
aVslaapmiddel
p5766
aVrapport
p5767
aVdoeltreffend
p5768
aVquart
p5769
aVsterft
p5770
aVonschadelijk
p5771
aVgevreesd
p5772
aVraakt
p5773
aVpaniek
p5774
aVstopt
p5775
aVschoteltje
p5776
aVkoperen
p5777
aVvaas
p5778
aVdurft
p5779
aVteveel
p5780
aVbedwelmend
p5781
aVreactie
p5782
aVuren
p5783
aVvreselijkste
p5784
aVopbiechten
p5785
aVvergiftigde
p5786
aVvolledig
p5787
aVvertraagde
p5788
aVstuitten
p5789
aVmerkwaardigs
p5790
aVgeurde
p5791
aVpool
p5792
aVsplintertjes
p5793
aVgekanteld
p5794
aVverraderlijke
p5795
aVparten
p5796
aVgissen
p5797
aVkapotte
p5798
aVopgeraapt
p5799
aVleende
p5800
aVverdoezelen
p5801
aVopmerkelijk
p5802
aVtheatraal
p5803
aVdrankje
p5804
aVdoodde
p5805
aVvoorgeschreven
p5806
aVvoorlezen
p5807
aVrecepten
p5808
aVrecept
p5809
aVhandboeken
p5810
aVgemengd
p5811
aVneerslaan
p5812
aVkristallen
p5813
aVonoplosbare
p5814
aVbromide
p5815
aVeenzelfde
p5816
aVneergeslagen
p5817
aVverzamelde
p5818
aVinnemen
p5819
aVbezinken
p5820
aVaangeeft
p5821
aVstraks
p5822
aVopdat
p5823
aVbezinksel
p5824
aVonderin
p5825
aVvakkundig
p5826
aVdoorgeknipt
p5827
aVmaandagnacht
p5828
aVlogeerde
p5829
aVbereik
p5830
aVingeroepen
p5831
aVdorpsfeest
p5832
aVvergat
p5833
aVuitgestippeld
p5834
aVuitstel
p5835
aVdunne
p5836
aVstroken
p5837
aVamis
p5838
aVtijdig
p5839
aVontsnapt
p5840
aVgedaante
p5841
aVdoodse
p5842
aVheerlijke
p5843
aVaanbreken
p5844
aVNooit
p5845
aVgeniale
p5846
aVvondst
p5847
aVschrijver
p5848
aVidentiteit
p5849
aVAllemaal
p5850
aVmerg
p5851
aVomvergegooid
p5852
aVaanvaller
p5853
aVzwierige
p5854
aVdrukke
p5855
aVvoorarrest
p5856
aVbrandend
p5857
aVbrug
p5858
aVHoogstens
p5859
aVtoegelaten
p5860
aVheerschap
p5861
aVlont
p5862
aVgeroken
p5863
aVtreffend
p5864
aVbonjour
p5865
aVkansen
p5866
aVdiplomatieker
p5867
aVsmeekte
p5868
aVsmeek
p5869
aVvriendelijker
p5870
aVgestemd
p5871
aVprofijt
p5872
aVontkomen
p5873
aVmopperen
p5874
aVzienswijze
p5875
aVdanig
p5876
aVondernam
p5877
aVerachter
p5878
aVdoodeenvoudige
p5879
aVdelict
p5880
aVberecht
p5881
aVnagaan
p5882
aVzodanige
p5883
aVwaterdichte
p5884
aVhokus
p5885
aVpokus
p5886
aVlengte
p5887
aVlaag
p5888
aVneef
p5889
aVnicht
p5890
aVBon
p5891
aVopgedaan
p5892
aVstuderen
p5893
aVtoevoegen
p5894
aVnihil
p5895
aVwilden
p5896
aVondergang
p5897
aVplafond
p5898
aVbedachten
p5899
aVaantal
p5900
aVkrijgt
p5901
aVtekent
p5902
aVgeoefend
p5903
aVafgelegen
p5904
aVlokken
p5905
aVkeert
p5906
aVcompromitteren
p5907
aVvoorwendsel
p5908
aVkink
p5909
aVkabel
p5910
aVbegaat
p5911
aVhandlangster
p5912
aVvreest
p5913
aVfalen
p5914
aVwegmoffelen
p5915
aVwandelt
p5916
aVopenmaken
p5917
aVleest
p5918
aVrealiseert
p5919
aVverraderlijk
p5920
aVinhoudt
p5921
aVloert
p5922
aVforceerde
p5923
aVonderkende
p5924
aVBehalve
p5925
aVallergrootste
p5926
aVProbeer
p5927
aVtonele
p5928
aVtegenslag
p5929
aVzakmes
p5930
aVzoekt
p5931
aVdilemma
p5932
aVgefouilleerd
p5933
aVdatzelfde
p5934
aVWelsh
p5935
aVrazendsnel
p5936
aVoogwenk
p5937
aVrepen
p5938
aVopgerold
p5939
aVopgerolde
p5940
aVstrookjes
p5941
aVpijp
p5942
aVneus
p5943
aVfortuinlijke
p5944
aVrechtgezet
p5945
aVuitzonderlijke
p5946
aVrace
p5947
aVvolop
p5948
aVverhinderen
p5949
aVbekendheid
p5950
aVonophoudelijk
p5951
aVwaakzaamheid
p5952
aVondernemen
p5953
aVopgezet
p5954
aVAlgemeen
p5955
aVdoodsvijanden
p5956
aVrisicos
p5957
aVruime
p5958
aVspaties
p5959
aVdatum
p5960
aVzevende
p5961
aVafvroeg
p5962
aVbedriegelijk
p5963
aVgeknoeid
p5964
aVNogmaals
p5965
aVstruikelblok
p5966
aVdaartegen
p5967
aVpleitten
p5968
aVsloten
p5969
aVmedeplichtig
p5970
aVmaskeren
p5971
aVhartstochtelijk
p5972
aVschandelijk
p5973
aVkomplot
p5974
aVgesmeed
p5975
aVrijke
p5976
aVingenieus
p5977
aVbedachte
p5978
aVbuit
p5979
aVbinnenhalen
p5980
aVverlopen
p5981
aVslachtoffer
p5982
aVsluw
p5983
aVvoorbereidingen
p5984
aVcompromitterende
p5985
aVbesteedt
p5986
aVuitspookt
p5987
aVdwarsgezeten
p5988
aVSnapte
p5989
aVspookte
p5990
aVVerder
p5991
aVLa
p5992
aVpetite
p5993
aVTrok
p5994
aVles
p5995
aVZette
p5996
aVdomme
p5997
aVtrapte
p5998
aVgruzelementen
p5999
aVspande
p6000
aVhandhaven
p6001
aVverzoend
p6002
aVDankzij
p6003
aVgegroeid
p6004
aVmisverstand
p6005
aVgevoelig
p6006
aVopdringen
p6007
aVterugtrok
p6008
aVgescheiden
p6009
aVverzeilde
p6010
aVaantrof
p6011
aVindenken
p6012
aVwoog
p6013
aVschuldigen
p6014
aVdele
p6015
aVrechtzaak
p6016
aVbesliste
p6017
aVStomverbaasd
p6018
aVvredesnaam
p6019
aVaangedurfd
p6020
aVveroordelen
p6021
aVuitgeput
p6022
aVopgeschrokken
p6023
aVgekwelde
p6024
aVgeknikt
p6025
aVteruggebracht
p6026
aVkwastje
p6027
aVfrunniken
p6028
aVschatten
p6029
aVkuste
p6030
aVgekust
p6031
aVfeliciteren
p6032
aVbloosde
p6033
aVbiedt
p6034
aVzielige
p6035
aVuitgezien
p6036
aVdroef
p6037
aVTroost
p6038
aVjacht
p6039
aVhou
p6040
aVhallo
p6041
aV't
p6042
aV's
p6043
aV'n
p6044
aV'm
p6045
aVjongens
p6046
aVprobeer
p6047
aVben.
p6048
aVn
p6049
aVvooruit
p6050
aVin_orde
p6051
aVzet
p6052
aVm'n
p6053
aVz'n
p6054
aVvergeet
p6055
aVblijf
p6056
aVaan_het
p6057
aVklootzak
p6058
aVverdomme
p6059
aVstad
p6060
aVh
p6061
aVsorry
p6062
aVdoden
p6063
aVstop
p6064
aVniet_eens
p6065
aVdollar
p6066
aVok
p6067
aVmama
p6068
aVbreng
p6069
aValsjeblieft
p6070
aVschool
p6071
aVmr
p6072
aVgod
p6073
aVzo'n
p6074
aVwater
p6075
aVoh
p6076
aVhaal
p6077
aVbedankt
p6078
aVaan_de_hand
p6079
aVproblemen
p6080
aVh
p6081
a.