(lp0
(Venorme
p1
I1
tp2
a(Vbelangstelling
p3
I2
tp4
a(Vindertijd
p5
I9
tp6
a(Vde
p7
I13
tp8
a(Vbetrokken
p9
I31
tp10
a(Vfamilieleden
p11
I32
tp12
a(Vgrote
p13
I51
tp14
a(Vvoorgoed
p15
I61
tp16
a(Veinde
p17
I63
tp18
a(Vsensationele
p19
I68
tp20
a(Vgeruchten
p21
I69
tp22
a(Vomstandigheden
p23
I83
tp24
a(Vertoe
p25
I86
tp26
a(g9
I94
tp27
a(Vdoorgebracht
p28
I111
tp29
a(Vdeprimerend
p30
I115
tp31
a(Vherstellingsoord
p32
I116
tp33
a(Vvrienden
p34
I128
tp35
a(Vhet
p36
I134
tp37
a(Voverleggen
p38
I135
tp39
a(Vik
p40
I142
tp41
a(Vgezien
p42
I156
tp43
a(Vnooit
p44
I161
tp45
a(Veerste
p46
I166
tp47
a(Vgelogeerd
p48
I190
tp49
a(Vvan
p50
I195
tp51
a(g50
I210
tp52
a(Vuitnodigde
p53
I217
tp54
a(g36
I227
tp55
a(Vhij
p56
I239
tp57
a(Vverbazing
p58
I261
tp59
a(Vblijken
p60
I265
tp61
a(Vhad
p62
I280
tp63
a(Vmiddelbare
p64
I289
tp65
a(VIk
p66
I298
tp67
a(Vherinnerde
p68
I299
tp69
a(Venergieke
p70
I304
tp71
a(Vdominerende
p72
I305
tp73
a(Vpersoonlijkheid
p74
I306
tp75
a(Vmaatschappelijk
p76
I313
tp77
a(Vterrein
p78
I314
tp79
a(Vopende
p80
I320
tp81
a(Vweldoenster
p82
I323
tp83
a(Vvermogen
p84
I334
tp85
a(Val
p86
I353
tp87
a(Vdat
p88
I360
tp89
a(Vdood
p90
I365
tp91
a(g36
I366
tp92
a(Vhuis
p93
I367
tp94
a(Vgrootste
p95
I377
tp96
a(Vzijn
p97
I380
tp98
a(Vuitgesproken
p99
I385
tp100
a(Voneerlijk
p101
I386
tp102
a(Vzij
p103
I419
tp104
a(Vals
p105
I421
tp106
a(Vbeschouwden
p107
I425
tp108
a(Vmet
p109
I433
tp110
a(Vgezondheid
p111
I435
tp112
a(Vgeworden
p113
I440
tp114
a(Vgegeven
p115
I447
tp116
a(VHij
p117
I448
tp118
a(Vletterkundige
p119
I454
tp120
a(Vgedichten
p121
I457
tp122
a(Vnoemenswaardig
p123
I462
tp124
a(Vuiteindelijk
p125
I473
tp126
a(Vgeleden
p127
I482
tp128
a(g40
I495
tp129
a(Vvermoeden
p130
I498
tp131
a(Vgrotere
p132
I504
tp133
a(Veigen
p134
I530
tp135
a(Vzin
p136
I531
tp137
a(Vverlangde
p138
I537
tp139
a(Vmoeders
p140
I569
tp141
a(Vverpest
p142
I594
tp143
a(Vzal
p144
I605
tp145
a(g50
I624
tp146
a(VNou
p147
I630
tp148
a(Veigenlijk
p149
I648
tp150
a(g117
I655
tp151
a(Vopdagen
p152
I660
tp153
a(g88
I664
tp154
a(Vop
p155
I678
tp156
a(Vgesteld
p157
I679
tp158
a(Vkan
p159
I686
tp160
a(g7
I693
tp161
a(g117
I696
tp162
a(Vlakschoenen
p163
I703
tp164
a(g155
I716
tp165
a(Vhonderd
p166
I729
tp167
a(Vverenigingen
p168
I730
tp169
a(g97
I737
tp170
a(Vgeen
p171
I741
tp172
a(Vhonderden
p173
I742
tp174
a(Vdrie
p175
I771
tp176
a(g127
I773
tp177
a(Vplotseling
p178
I774
tp179
a(Vaankondigde
p180
I775
tp181
a(Vhadden
p182
I782
tp183
a(Vdan
p184
I790
tp185
a(Vonbeschaamde
p186
I796
tp187
a(Veen
p188
I816
tp189
a(Vmoeilijke
p190
I817
tp191
a(Vonmogelijke
p192
I822
tp193
a(Vstationnetje
p194
I846
tp195
a(Venige
p196
I848
tp197
a(Vduidelijke
p198
I849
tp199
a(Vbestaansgrond
p200
I850
tp201
a(Vgelegen
p202
I851
tp203
a(Vgroene
p204
I854
tp205
a(Vlandweggetjes
p206
I857
tp207
a(Vme
p208
I861
tp209
a(VDat
p210
I886
tp211
a(Vvoornamelijk
p212
I889
tp213
a(g175
I904
tp214
a(g194
I908
tp215
a(g188
I922
tp216
a(Vrustige
p217
I923
tp218
a(Vgeloven
p219
I953
tp220
a(g62
I966
tp221
a(Vwas
p222
I976
tp223
a(Vterechtgekomen
p224
I977
tp225
a(Vbij
p226
I982
tp227
a(g7
I983
tp228
a(Vvinden
p229
I997
tp230
a(Vkerel
p231
I1000
tp232
a(Vnodig
p233
I1007
tp234
a(g157
I1017
tp235
a(Vleventje
p236
I1022
tp237
a(Vboerderijen
p238
I1039
tp239
a(Vwerkt
p240
I1059
tp241
a(g188
I1062
tp242
a(Vstuk
p243
I1063
tp244
a(Vtot
p245
I1065
tp246
a(Vbank
p247
I1070
tp248
a(Vzou
p249
I1077
tp250
a(Vdie
p251
I1081
tp252
a(VAlfred
p253
I1082
tp254
a(VPlotseling
p255
I1083
tp256
a(Veven
p257
I1086
tp258
a(Vaf
p259
I1087
tp260
a(g155
I1090
tp261
a(g97
I1091
tp262
a(Vis
p263
I1127
tp264
a(Vvroegere
p265
I1138
tp266
a(Vschoolvriendin
p267
I1139
tp268
a(g222
I1144
tp269
a(g188
I1146
tp270
a(g117
I1149
tp271
a(Vverongelukte
p272
I1150
tp273
a(VMijn
p274
I1161
tp275
a(Vkwam
p276
I1163
tp277
a(Vtwee
p278
I1172
tp279
a(Vin
p280
I1178
tp281
a(Vkilometer
p282
I1182
tp283
a(Vhiervandaan
p284
I1183
tp285
a(Vwoorden
p286
I1188
tp287
a(Vhielden
p288
I1190
tp289
a(VEen
p290
I1198
tp291
a(Vvrouw
p292
I1199
tp293
a(g280
I1200
tp294
a(Vrok
p295
I1202
tp296
a(g50
I1203
tp297
a(Vgewonde
p298
I1224
tp299
a(Vmijn
p300
I1231
tp301
a(Vbuitengewoon
p302
I1245
tp303
a(g222
I1256
tp304
a(Vonaardige
p305
I1259
tp306
a(g62
I1265
tp307
a(g222
I1281
tp308
a(g103
I1299
tp309
a(g280
I1301
tp310
a(Vtelegramstijl
p311
I1302
tp312
a(Vtiert
p313
I1305
tp314
a(VPas
p315
I1317
tp316
a(VZeg
p317
I1333
tp318
a(Vthee
p319
I1355
tp320
a(g93
I1367
tp321
a(Vopgesloten
p322
I1368
tp323
a(Vgenoeg
p324
I1377
tp325
a(g40
I1397
tp326
a(Vvoor
p327
I1400
tp328
a(Vtuinhandschoenen
p329
I1406
tp330
a(g13
I1428
tp331
a(Vrieten
p332
I1434
tp333
a(Vstoelen
p334
I1435
tp335
a(g46
I1455
tp336
a(Vvergeten
p337
I1460
tp338
a(Vafgetekend
p339
I1468
tp340
a(Vheldere
p341
I1471
tp342
a(Vsterke
p343
I1474
tp344
a(g245
I1481
tp345
a(Vprachtige
p346
I1488
tp347
a(Vopmerkelijke
p348
I1490
tp349
a(g42
I1501
tp350
a(Vontembare
p351
I1514
tp352
a(g66
I1526
tp353
a(g144
I1527
tp354
a(g337
I1530
tp355
a(Vbegroette
p356
I1532
tp357
a(Vvriendelijke
p358
I1537
tp359
a(Ven
p360
I1545
tp361
a(Vuitermate
p362
I1549
tp363
a(Vtevreden
p364
I1550
tp365
a(g62
I1555
tp366
a(g217
I1573
tp367
a(Vopmerkingen
p368
I1574
tp369
a(g46
I1577
tp370
a(Vfascinerende
p371
I1588
tp372
a(Vversterkten
p373
I1592
tp374
a(Vluisteren
p375
I1597
tp376
a(Vstimulerend
p377
I1600
tp378
a(g155
I1604
tp379
a(Vhumoristische
p380
I1605
tp381
a(g300
I1623
tp382
a(g86
I1629
tp383
a(Vstem
p384
I1649
tp385
a(Vopenstaande
p386
I1652
tp387
a(Vtuindeuren
p388
I1653
tp389
a(g66
I1665
tp390
a(Vaan
p391
I1668
tp392
a(VOf
p393
I1675
tp394
a(g249
I1691
tp395
a(Vweigeren
p396
I1692
tp397
a(g155
I1695
tp398
a(g46
I1697
tp399
a(VCrosbie
p400
I1702
tp401
a(VDan
p402
I1706
tp403
a(Vnog
p404
I1709
tp405
a(g66
I1713
tp406
a(g36
I1729
tp407
a(g253
I1739
tp408
a(Viets
p409
I1743
tp410
a(Vgrasveld
p411
I1759
tp412
a(Veerbiedige
p413
I1786
tp414
a(Vonderdanigheid
p415
I1787
tp416
a(g356
I1789
tp417
a(Vnieuwsgierig
p418
I1818
tp419
a(g117
I1822
tp420
a(Vmij
p421
I1824
tp422
a(Vinderdaad
p423
I1825
tp424
a(g280
I1829
tp425
a(Vbijt
p426
I1831
tp427
a(VJohn
p428
I1837
tp429
a(g117
I1853
tp430
a(Vgoudgerande
p431
I1856
tp432
a(g208
I1865
tp433
a(g56
I1867
tp434
a(Vheel
p435
I1868
tp436
a(g56
I1877
tp437
a(Vwerkelijke
p438
I1891
tp439
a(g117
I1893
tp440
a(Vgaf
p441
I1900
tp442
a(Vwendde
p443
I1911
tp444
a(g188
I1931
tp445
a(Vtederste
p446
I1943
tp447
a(Vverliefdheid
p448
I1956
tp449
a(Voverigens
p450
I1959
tp451
a(Vverstandige
p452
I1961
tp453
a(Vverborgen
p454
I1975
tp455
a(Vvijandigheid
p456
I1976
tp457
a(Vhaar
p458
I1987
tp459
a(Vgevoelens
p460
I1988
tp461
a(Vverbergen
p462
I1990
tp463
a(g105
I2003
tp464
a(Vvroeger
p465
I2007
tp466
a(g68
I2008
tp467
a(g243
I2013
tp468
a(Vkomende
p469
I2018
tp470
a(g222
I2023
tp471
a(Vorganiseren
p472
I2025
tp473
a(Vworden
p474
I2032
tp475
a(VZo
p476
I2033
tp477
a(g443
I2037
tp478
a(Vverandering
p479
I2055
tp480
a(Voplettende
p481
I2058
tp482
a(Vvoorkomende
p483
I2060
tp484
a(VVan
p485
I2062
tp486
a(g46
I2064
tp487
a(Vingewortelde
p488
I2072
tp489
a(g391
I2074
tp490
a(g46
I2085
tp491
a(Vindrukken
p492
I2086
tp493
a(g443
I2092
tp494
a(Venkele
p495
I2099
tp496
a(Vinstructies
p497
I2100
tp498
a(Vwerkte
p499
I2128
tp500
a(Vgaan
p501
I2142
tp502
a(Vdoen
p503
I2153
tp504
a(Vvoren
p505
I2158
tp506
a(g503
I2164
tp507
a(Vheimelijke
p508
I2181
tp509
a(Vvroeg
p510
I2183
tp511
a(g171
I2192
tp512
a(g88
I2196
tp513
a(VMisschien
p514
I2206
tp515
a(Vgekoesterd
p516
I2214
tp517
a(g393
I2223
tp518
a(g188
I2224
tp519
a(Vontzettend
p520
I2238
tp521
a(Vberoemd
p522
I2250
tp523
a(Vmannetje
p524
I2263
tp525
a(Vgoede
p526
I2271
tp527
a(Vook
p528
I2283
tp529
a(Vgebaseerd
p530
I2285
tp531
a(g188
I2290
tp532
a(g222
I2295
tp533
a(g302
I2303
tp534
a(Vpienter
p535
I2304
tp536
a(g528
I2307
tp537
a(Vmerkte
p538
I2311
tp539
a(Vonzin
p540
I2320
tp541
a(Vgeschreven
p542
I2321
tp543
a(Vgeslagen
p544
I2333
tp545
a(Vheleboel
p546
I2341
tp547
a(g40
I2346
tp548
a(VBedoel
p549
I2347
tp550
a(g226
I2358
tp551
a(g9
I2359
tp552
a(Vniet
p553
I2366
tp554
a(Vmisleiden
p555
I2368
tp556
a(Vgrap
p557
I2378
tp558
a(g105
I2383
tp559
a(g9
I2385
tp560
a(Vmoord
p561
I2395
tp562
a(g36
I2397
tp563
a(g7
I2402
tp564
a(g249
I2404
tp565
a(VMaar
p566
I2423
tp567
a(g40
I2424
tp568
a(g66
I2431
tp569
a(g249
I2432
tp570
a(Vonmiddellijk
p571
I2434
tp572
a(Vopperde
p573
I2448
tp574
a(g188
I2455
tp575
a(g341
I2471
tp576
a(Vgisteren
p577
I2481
tp578
a(g553
I2494
tp579
a(Vgebruikelijke
p580
I2500
tp581
a(Vvergiften
p582
I2501
tp583
a(Vontelbare
p584
I2504
tp585
a(g130
I2512
tp586
a(Vbestond
p587
I2515
tp588
a(Vloopt
p589
I2533
tp590
a(g263
I2536
tp591
a(Vaanlopen
p592
I2553
tp593
a(g263
I2561
tp594
a(Vlevendig
p595
I2568
tp596
a(Vpersoontje
p597
I2569
tp598
a(g40
I2579
tp599
a(Vbewonderde
p600
I2580
tp601
a(Vgolvende
p602
I2582
tp603
a(Vkastanjebruine
p604
I2583
tp605
a(Vhand
p606
I2589
tp607
a(g319
I2593
tp608
a(VMet
p609
I2595
tp610
a(g188
I2603
tp611
a(g40
I2623
tp612
a(g109
I2627
tp613
a(g155
I2633
tp614
a(Vgras
p615
I2635
tp616
a(Vprettiger
p617
I2640
tp618
a(Vknikte
p619
I2653
tp620
a(VTiranniseren
p621
I2658
tp622
a(g184
I2661
tp623
a(g188
I2665
tp624
a(Vproberen
p625
I2672
tp626
a(Vverontwaardigd
p627
I2675
tp628
a(g188
I2679
tp629
a(g105
I2691
tp630
a(g90
I2693
tp631
a(VDie
p632
I2698
tp633
a(g171
I2703
tp634
a(g286
I2704
tp635
a(Vverpleegster
p636
I2716
tp637
a(Vmensen
p638
I2723
tp639
a(g173
I2733
tp640
a(Vschrijven
p641
I2747
tp642
a(Vtante
p643
I2749
tp644
a(g571
I2753
tp645
a(Vovereind
p646
I2754
tp647
a(g68
I2762
tp648
a(Vafhankelijke
p649
I2768
tp650
a(Vvriendelijk
p651
I2775
tp652
a(g337
I2785
tp653
a(g144
I2793
tp654
a(Vsouperen
p655
I2799
tp656
a(Vom
p657
I2801
tp658
a(Vdineren
p659
I2807
tp660
a(g196
I2809
tp661
a(g263
I2819
tp662
a(g528
I2827
tp663
a(g263
I2830
tp664
a(Vvoorbeeld
p665
I2838
tp666
a(Vzei
p667
I2865
tp668
a(Vverschillende
p669
I2893
tp670
a(g280
I2901
tp671
a(g188
I2914
tp672
a(Vlangzaam
p673
I2924
tp674
a(Vover
p675
I2925
tp676
a(g66
I2935
tp677
a(Vongeduldige
p678
I2940
tp679
a(g155
I2947
tp680
a(Vrende
p681
I2949
tp682
a(VOp
p683
I2954
tp684
a(Vboom
p685
I2964
tp686
a(g222
I2979
tp687
a(Vdonker
p688
I2981
tp689
a(Vgladgeschoren
p690
I2986
tp691
a(Vemotie
p692
I2997
tp693
a(Vherkende
p694
I3009
tp695
a(Vhoewel
p696
I3011
tp697
a(Vveranderd
p698
I3024
tp699
a(g50
I3041
tp700
a(Vsituatie
p701
I3059
tp702
a(Voverpeinzen
p703
I3061
tp704
a(Vplezierig
p705
I3065
tp706
a(g50
I3071
tp707
a(Vraadselachtige
p708
I3073
tp709
a(Vvolgende
p710
I3078
tp711
a(Vbrengen
p712
I3100
tp713
a(g66
I3101
tp714
a(Vkeerden
p715
I3131
tp716
a(Vvervelends
p717
I3162
tp718
a(Vons
p719
I3176
tp720
a(g263
I3183
tp721
a(Vdonderen
p722
I3185
tp723
a(g360
I3192
tp724
a(g263
I3211
tp725
a(g276
I3216
tp726
a(Vhield
p727
I3219
tp728
a(Vstijf
p729
I3222
tp730
a(Vopeengeklemd
p731
I3223
tp732
a(Vopgewonden
p733
I3234
tp734
a(Vvastberaden
p735
I3236
tp736
a(Vheb
p737
I3249
tp738
a(g40
I3255
tp739
a(g619
I3275
tp740
a(Vzon
p741
I3284
tp742
a(Vdoorgedrongen
p743
I3313
tp744
a(g144
I3317
tp745
a(Vafglijden
p746
I3326
tp747
a(Vman
p748
I3342
tp749
a(g184
I3347
tp750
a(g737
I3399
tp751
a(g404
I3401
tp752
a(g421
I3432
tp753
a(g40
I3441
tp754
a(Vboekdelen
p755
I3455
tp756
a(Vgemene
p757
I3460
tp758
a(Vlaster
p759
I3461
tp760
a(Vverlaten
p761
I3479
tp762
a(Vga
p763
I3484
tp764
a(Vaanstaren
p765
I3500
tp766
a(g88
I3532
tp767
a(g625
I3535
tp768
a(Vandere
p769
I3538
tp770
a(Vgedachten
p771
I3539
tp772
a(g712
I3541
tp773
a(g222
I3547
tp774
a(Vveranderde
p775
I3548
tp776
a(g733
I3560
tp777
a(Vverraste
p778
I3574
tp779
a(g155
I3581
tp780
a(Vliet
p781
I3585
tp782
a(g188
I3589
tp783
a(Vgefluister
p784
I3590
tp785
a(g188
I3602
tp786
a(VJa
p787
I3604
tp788
a(Vte
p789
I3627
tp790
a(Vweg
p791
I3640
tp792
a(Voverspannen
p793
I3668
tp794
a(g188
I3674
tp795
a(Vwat
p796
I3682
tp797
a(Vrondgekeken
p798
I3687
tp799
a(g263
I3696
tp800
a(g402
I3704
tp801
a(Vraam
p802
I3714
tp803
a(g609
I3735
tp804
a(g155
I3738
tp805
a(VEr
p806
I3762
tp807
a(g222
I3763
tp808
a(Vkoor
p809
I3779
tp810
a(Vwelgemeende
p811
I3781
tp812
a(Vprotesten
p813
I3782
tp814
a(Vauto
p815
I3792
tp816
a(Vwegreed
p817
I3793
tp818
a(Vbaard
p819
I3817
tp820
a(g510
I3839
tp821
a(g188
I3863
tp822
a(g56
I3865
tp823
a(Vernstige
p824
I3868
tp825
a(Vgehad
p826
I3870
tp827
a(Vpientere
p828
I3877
tp829
a(g50
I3881
tp830
a(g95
I3883
tp831
a(Vdeze
p832
I3886
tp833
a(g50
I3891
tp834
a(g582
I3892
tp835
a(g263
I3895
tp836
a(Veruit
p837
I3903
tp838
a(VCavendish
p839
I3905
tp840
a(VGa
p841
I3915
tp842
a(g263
I3922
tp843
a(VZe
p844
I3927
tp845
a(Vnam
p846
I3928
tp847
a(g435
I3939
tp848
a(Vzo
p849
I3942
tp850
a(VHoward
p851
I3946
tp852
a(g36
I3949
tp853
a(g391
I3964
tp854
a(g93
I3976
tp855
a(Vinliepen
p856
I3981
tp857
a(Vzigeunerachtig
p858
I3986
tp859
a(Vtegenovergestelde
p860
I3990
tp861
a(Vwaarderend
p862
I4002
tp863
a(g88
I4030
tp864
a(Vlevendige
p865
I4031
tp866
a(Vondeugende
p867
I4032
tp868
a(Vverschenen
p869
I4041
tp870
a(Vvoorgevoel
p871
I4048
tp872
a(Vnaderend
p873
I4050
tp874
a(g50
I4055
tp875
a(g259
I4057
tp876
a(Vwerkelijk
p877
I4060
tp878
a(g40
I4066
tp879
a(g117
I4069
tp880
a(g188
I4076
tp881
a(g149
I4089
tp882
a(g188
I4099
tp883
a(Vbehoorlijk
p884
I4100
tp885
a(g249
I4106
tp886
a(g40
I4107
tp887
a(Vweten
p888
I4124
tp889
a(VZou
p890
I4138
tp891
a(Vje
p892
I4139
tp893
a(g117
I4146
tp894
a(Vcent
p895
I4149
tp896
a(g56
I4151
tp897
a(Vgespendeerd
p898
I4153
tp899
a(g251
I4160
tp900
a(g40
I4171
tp901
a(Vmoet
p902
I4172
tp903
a(g88
I4174
tp904
a(Vreusachtig
p905
I4178
tp906
a(Vvoelde
p907
I4200
tp908
a(VEvelyn
p909
I4206
tp910
a(Vverdwenen
p911
I4213
tp912
a(g50
I4219
tp913
a(Vveiligheid
p914
I4220
tp915
a(Vgegarandeerd
p916
I4221
tp917
a(g911
I4226
tp918
a(Vwantrouwen
p919
I4232
tp920
a(g7
I4235
tp921
a(Vgekomen
p922
I4237
tp923
a(Vsinistere
p924
I4240
tp925
a(Vherinnering
p926
I4248
tp927
a(Viedereen
p928
I4257
tp929
a(g919
I4261
tp930
a(g62
I4266
tp931
a(g188
I4268
tp932
a(g871
I4269
tp933
a(g873
I4271
tp934
a(g40
I4299
tp935
a(Vgebeurtenissen
p936
I4301
tp937
a(g849
I4305
tp938
a(Vwerden
p939
I4313
tp940
a(Veindeloze
p941
I4323
tp942
a(Vkruisverhoren
p943
I4325
tp944
a(Vvertrek
p945
I4332
tp946
a(g636
I4345
tp947
a(g155
I4353
tp948
a(Vongeveer
p949
I4354
tp950
a(g282
I4356
tp951
a(g441
I4366
tp952
a(Vprettige
p953
I4404
tp954
a(Vvoorstellen
p955
I4410
tp956
a(g280
I4413
tp957
a(g66
I4430
tp958
a(g902
I4431
tp959
a(Vkon
p960
I4437
tp961
a(Vbegrijpen
p962
I4438
tp963
a(g251
I4442
tp964
a(g849
I4444
tp965
a(VHet
p966
I4452
tp967
a(Vvol
p968
I4456
tp969
a(Vgehouden
p970
I4463
tp971
a(g249
I4468
tp972
a(g188
I4477
tp973
a(Vvoordragen
p974
I4479
tp975
a(Vversieren
p976
I4494
tp977
a(Vluierend
p978
I4514
tp979
a(g155
I4522
tp980
a(g117
I4529
tp981
a(g733
I4532
tp982
a(Vvermoeiende
p983
I4546
tp984
a(g40
I4552
tp985
a(VOm
p986
I4561
tp987
a(g949
I4562
tp988
a(g88
I4568
tp989
a(Vopschieten
p990
I4571
tp991
a(g655
I4576
tp992
a(Vnippertje
p993
I4581
tp994
a(Vvoordracht
p995
I4599
tp996
a(Vgroot
p997
I4610
tp998
a(Vmeedeed
p999
I4620
tp1000
a(Vging
p1001
I4622
tp1002
a(g719
I4625
tp1003
a(g93
I4628
tp1004
a(Vlogeren
p1005
I4638
tp1006
a(g34
I4640
tp1007
a(Vopgetreden
p1008
I4647
tp1009
a(g710
I4649
tp1010
a(Vverscheen
p1011
I4665
tp1012
a(Vsleepte
p1013
I4671
tp1014
a(g421
I4674
tp1015
a(g358
I4681
tp1016
a(g263
I4699
tp1017
a(g50
I4701
tp1018
a(Vgeslachten
p1019
I4704
tp1020
a(g188
I4720
tp1021
a(g953
I4721
tp1022
a(Vstelde
p1023
I4726
tp1024
a(Vterugrijden
p1025
I4733
tp1026
a(g249
I4755
tp1027
a(g719
I4756
tp1028
a(Vzelf
p1029
I4760
tp1030
a(Vdoorrijden
p1031
I4761
tp1032
a(g669
I4765
tp1033
a(g1025
I4774
tp1034
a(g105
I4784
tp1035
a(Vverdachte
p1036
I4785
tp1037
a(Vvastgehouden
p1038
I4787
tp1039
a(g1011
I4790
tp1040
a(g719
I4794
tp1041
a(Vontfermde
p1042
I4795
tp1043
a(g458
I4805
tp1044
a(Vinboezemde
p1045
I4826
tp1046
a(Vaangesproken
p1047
I4834
tp1048
a(g501
I4849
tp1049
a(Voriginelers
p1050
I4862
tp1051
a(Vuitzondering
p1052
I4870
tp1053
a(VWat
p1054
I4893
tp1055
a(Vgaat
p1056
I4902
tp1057
a(Vgriezelig
p1058
I4920
tp1059
a(g263
I4923
tp1060
a(Vvergiftigen
p1061
I4929
tp1062
a(g171
I4933
tp1063
a(Vtheedrinken
p1064
I4942
tp1065
a(Vallerlei
p1066
I4945
tp1067
a(Vgeheime
p1068
I4946
tp1069
a(Vvoorraden
p1070
I4947
tp1071
a(g263
I4954
tp1072
a(Vdronken
p1073
I4960
tp1074
a(g109
I4968
tp1075
a(g182
I4977
tp1076
a(Vopgeborgen
p1077
I4978
tp1078
a(Vgezichten
p1079
I4987
tp1080
a(Vkijkende
p1081
I5003
tp1082
a(g636
I5004
tp1083
a(g88
I5010
tp1084
a(g7
I5019
tp1085
a(g708
I5021
tp1086
a(g50
I5038
tp1087
a(Vvanmorgen
p1088
I5043
tp1089
a(g474
I5048
tp1090
a(g62
I5055
tp1091
a(g337
I5057
tp1092
a(Vbuiten
p1093
I5063
tp1094
a(g155
I5064
tp1095
a(Vuitdrukking
p1096
I5071
tp1097
a(g50
I5075
tp1098
a(Vopbrengen
p1099
I5088
tp1100
a(Vgevreesde
p1101
I5094
tp1102
a(Vkrijgen
p1103
I5120
tp1104
a(g667
I5124
tp1105
a(Verg
p1106
I5130
tp1107
a(g105
I5133
tp1108
a(Vplank
p1109
I5152
tp1110
a(g226
I5156
tp1111
a(g360
I5157
tp1112
a(g155
I5160
tp1113
a(Vlach
p1114
I5170
tp1115
a(g902
I5173
tp1116
a(g155
I5179
tp1117
a(Vbalkonnetje
p1118
I5181
tp1119
a(Valle
p1120
I5185
tp1121
a(g66
I5187
tp1122
a(Vvolgde
p1123
I5188
tp1124
a(Vvriendin
p1125
I5192
tp1126
a(g669
I5197
tp1127
a(Vafdelingen
p1128
I5198
tp1129
a(Vachtergebleven
p1130
I5202
tp1131
a(g503
I5230
tp1132
a(VNee
p1133
I5232
tp1134
a(g184
I5234
tp1135
a(Vsluiten
p1136
I5235
tp1137
a(g93
I5242
tp1138
a(g66
I5243
tp1139
a(VVergeleken
p1140
I5255
tp1141
a(g520
I5261
tp1142
a(g860
I5276
tp1143
a(Vuitzonderlijk
p1144
I5283
tp1145
a(Vverlegen
p1146
I5284
tp1147
a(g955
I5300
tp1148
a(Vdegenen
p1149
I5302
tp1150
a(Videe
p1151
I5315
tp1152
a(g97
I5318
tp1153
a(Vhouding
p1154
I5319
tp1155
a(Vtegenover
p1156
I5320
tp1157
a(Vgeforceerd
p1158
I5323
tp1159
a(g458
I5329
tp1160
a(g1146
I5332
tp1161
a(Vhonderduit
p1162
I5345
tp1163
a(Vkinderen
p1164
I5349
tp1165
a(Vwe
p1166
I5351
tp1167
a(Vreden
p1168
I5355
tp1169
a(g40
I5357
tp1170
a(g404
I5360
tp1171
a(g36
I5369
tp1172
a(g40
I5372
tp1173
a(Vweer
p1174
I5373
tp1175
a(g276
I5376
tp1176
a(g251
I5383
tp1177
a(g56
I5398
tp1178
a(g178
I5399
tp1179
a(Vluide
p1180
I5402
tp1181
a(Vbeide
p1182
I5412
tp1183
a(Vanderen
p1184
I5435
tp1185
a(g210
I5438
tp1186
a(g955
I5453
tp1187
a(Vkennen
p1188
I5469
tp1189
a(g40
I5478
tp1190
a(g50
I5482
tp1191
a(g56
I5484
tp1192
a(g391
I5499
tp1193
a(g683
I5512
tp1194
a(Vvragende
p1195
I5514
tp1196
a(Vvervolgde
p1197
I5516
tp1198
a(g651
I5524
tp1199
a(Vgeboden
p1200
I5526
tp1201
a(Vlandgenoten
p1202
I5529
tp1203
a(Vgeboorteland
p1204
I5536
tp1205
a(Vmoesten
p1206
I5537
tp1207
a(VPoirot
p1208
I5548
tp1209
a(g222
I5549
tp1210
a(Vbuitenissig
p1211
I5551
tp1212
a(Vlang
p1213
I5558
tp1214
a(Voptreden
p1215
I5564
tp1216
a(Vkortgeknipt
p1217
I5582
tp1218
a(Vzoals
p1219
I5614
tp1220
a(g1106
I5620
tp1221
a(Vgevierde
p1222
I5629
tp1223
a(Vpolitiekorps
p1224
I5634
tp1225
a(g360
I5646
tp1226
a(g5
I5649
tp1227
a(g50
I5655
tp1228
a(g495
I5656
tp1229
a(g708
I5660
tp1230
a(g360
I5669
tp1231
a(Vonderdak
p1232
I5673
tp1233
a(Vverkregen
p1234
I5675
tp1235
a(g155
I5682
tp1236
a(g188
I5689
tp1237
a(Vsierlijke
p1238
I5690
tp1239
a(g66
I5710
tp1240
a(Vkende
p1241
I5719
tp1242
a(Vverleend
p1243
I5727
tp1244
a(VEn
p1245
I5733
tp1246
a(Vgedurende
p1247
I5734
tp1248
a(Vveelzijdige
p1249
I5744
tp1250
a(Vhal
p1251
I5762
tp1252
a(g733
I5772
tp1253
a(g510
I5787
tp1254
a(g1054
I5794
tp1255
a(g712
I5825
tp1256
a(Vgedienstige
p1257
I5830
tp1258
a(Vaarzelde
p1259
I5831
tp1260
a(g391
I5837
tp1261
a(Vtoevoegde
p1262
I5838
tp1263
a(g1106
I5850
tp1264
a(g66
I5861
tp1265
a(Vpaar
p1266
I5867
tp1267
a(g40
I5879
tp1268
a(g40
I5887
tp1269
a(Vdirect
p1270
I5889
tp1271
a(g1054
I5908
tp1272
a(g117
I5919
tp1273
a(g553
I5922
tp1274
a(g188
I5931
tp1275
a(g657
I5935
tp1276
a(g1023
I5942
tp1277
a(g681
I5959
tp1278
a(Vbeneden
p1279
I5973
tp1280
a(Vverbeelding
p1281
I5977
tp1282
a(g528
I5983
tp1283
a(g50
I5989
tp1284
a(Vgewandeld
p1285
I5993
tp1286
a(g510
I5996
tp1287
a(Vprobeerde
p1288
I6000
tp1289
a(Vonverschillig
p1290
I6002
tp1291
a(Vben
p1292
I6007
tp1293
a(g263
I6014
tp1294
a(Vvermannen
p1295
I6030
tp1296
a(g1251
I6046
tp1297
a(g360
I6051
tp1298
a(g40
I6059
tp1299
a(g7
I6065
tp1300
a(g386
I6072
tp1301
a(g710
I6087
tp1302
a(g155
I6096
tp1303
a(g1288
I6103
tp1304
a(Vantwoordde
p1305
I6117
tp1306
a(VMary
p1307
I6119
tp1308
a(g263
I6135
tp1309
a(g796
I6137
tp1310
a(g280
I6142
tp1311
a(Vtoenemende
p1312
I6155
tp1313
a(Vverbittering
p1314
I6156
tp1315
a(g62
I6160
tp1316
a(Vboven
p1317
I6169
tp1318
a(g249
I6172
tp1319
a(g356
I6181
tp1320
a(g733
I6183
tp1321
a(g263
I6186
tp1322
a(Vdaverende
p1323
I6188
tp1324
a(g36
I6193
tp1325
a(g1054
I6198
tp1326
a(Vnu
p1327
I6212
tp1328
a(Veindelijk
p1329
I6213
tp1330
a(g222
I6223
tp1331
a(Vwou
p1332
I6235
tp1333
a(g36
I6240
tp1334
a(g1001
I6242
tp1335
a(Vmogelijke
p1336
I6268
tp1337
a(Vveronderstellingen
p1338
I6269
tp1339
a(g249
I6280
tp1340
a(g1103
I6297
tp1341
a(Vmaar
p1342
I6298
tp1343
a(g806
I6304
tp1344
a(g286
I6317
tp1345
a(g337
I6324
tp1346
a(Vdeed
p1347
I6329
tp1348
a(Vuit
p1349
I6335
tp1350
a(g771
I6337
tp1351
a(g1279
I6355
tp1352
a(Vonbewogen
p1353
I6364
tp1354
a(g155
I6372
tp1355
a(Vonwerkelijk
p1356
I6375
tp1357
a(Vgeagiteerd
p1358
I6389
tp1359
a(g391
I6394
tp1360
a(Vdrukkende
p1361
I6397
tp1362
a(Vstilte
p1363
I6398
tp1364
a(g302
I6400
tp1365
a(Vkleine
p1366
I6410
tp1367
a(Vrol
p1368
I6422
tp1369
a(Vtoegewijde
p1370
I6424
tp1371
a(Vze
p1372
I6445
tp1373
a(Vopen
p1374
I6463
tp1375
a(g733
I6472
tp1376
a(Vschemeren
p1377
I6479
tp1378
a(VWil
p1379
I6484
tp1380
a(g712
I6490
tp1381
a(Vinschenken
p1382
I6496
tp1383
a(g712
I6507
tp1384
a(g1123
I6521
tp1385
a(g719
I6527
tp1386
a(g188
I6541
tp1387
a(g346
I6542
tp1388
a(Vogenblikken
p1389
I6564
tp1390
a(Vhartgrondig
p1391
I6582
tp1392
a(Vverfoeide
p1393
I6583
tp1394
a(g66
I6599
tp1395
a(Vveranderden
p1396
I6622
tp1397
a(g1389
I6627
tp1398
a(Vkondigde
p1399
I6629
tp1400
a(g391
I6633
tp1401
a(Vprotesteerde
p1402
I6636
tp1403
a(Vvertonen
p1404
I6646
tp1405
a(Vdroeve
p1406
I6651
tp1407
a(Vuitgevoerd
p1408
I6663
tp1409
a(Vverontschuldigingen
p1410
I6671
tp1411
a(g657
I6682
tp1412
a(Vstond
p1413
I6688
tp1414
a(g892
I6712
tp1415
a(Vvaren
p1416
I6741
tp1417
a(Vverloren
p1418
I6757
tp1419
a(Vgegleden
p1420
I6765
tp1421
a(Vlaten
p1422
I6772
tp1423
a(Vvreselijk
p1424
I6785
tp1425
a(Vdit
p1426
I6788
tp1427
a(Vriep
p1428
I6790
tp1429
a(Vdicht
p1430
I6834
tp1431
a(g226
I6835
tp1432
a(Vgetuigen
p1433
I6841
tp1434
a(g88
I6849
tp1435
a(Vonaangeroerde
p1436
I6854
tp1437
a(g280
I6856
tp1438
a(Vof
p1439
I6873
tp1440
a(g748
I6875
tp1441
a(g155
I6884
tp1442
a(Vrentmeester
p1443
I6905
tp1444
a(Vrekeningen
p1445
I6908
tp1446
a(g155
I6938
tp1447
a(g710
I6940
tp1448
a(g46
I6946
tp1449
a(Vverdieping
p1450
I6947
tp1451
a(Vdeur
p1452
I6951
tp1453
a(Vpersoneel
p1454
I6959
tp1455
a(Vrechtstreekse
p1456
I6963
tp1457
a(Vverbinding
p1458
I6964
tp1459
a(Vsliepen
p1460
I6972
tp1461
a(g117
I6988
tp1462
a(Vzag
p1463
I6997
tp1464
a(Vbed
p1465
I7019
tp1466
a(Vverwarde
p1467
I7029
tp1468
a(g88
I7035
tp1469
a(g1245
I7049
tp1470
a(g322
I7059
tp1471
a(g1349
I7065
tp1472
a(Vvoegde
p1473
I7090
tp1474
a(g1266
I7098
tp1475
a(Vbedienden
p1476
I7099
tp1477
a(g1146
I7106
tp1478
a(Vjij
p1479
I7114
tp1480
a(g421
I7122
tp1481
a(Vmeest
p1482
I7162
tp1483
a(Vverontrustende
p1484
I7163
tp1485
a(Vgeluiden
p1486
I7164
tp1487
a(g625
I7181
tp1488
a(g255
I7189
tp1489
a(Vrealiseerde
p1490
I7190
tp1491
a(g226
I7196
tp1492
a(g719
I7197
tp1493
a(g56
I7198
tp1494
a(g222
I7201
tp1495
a(Vverstek
p1496
I7203
tp1497
a(g966
I7214
tp1498
a(g222
I7215
tp1499
a(g226
I7225
tp1500
a(Vlicht
p1501
I7228
tp1502
a(g88
I7241
tp1503
a(Vliepen
p1504
I7250
tp1505
a(Vregelrecht
p1506
I7251
tp1507
a(g1206
I7264
tp1508
a(VLieve
p1509
I7267
tp1510
a(Vsnikte
p1511
I7269
tp1512
a(Vhandenwringend
p1513
I7271
tp1514
a(Vtoch
p1515
I7276
tp1516
a(g40
I7287
tp1517
a(g97
I7294
tp1518
a(g56
I7313
tp1519
a(g571
I7314
tp1520
a(Vvia
p1521
I7333
tp1522
a(g155
I7345
tp1523
a(Vgrendel
p1524
I7347
tp1525
a(g147
I7352
tp1526
a(g1288
I7368
tp1527
a(Vkennelijk
p1528
I7373
tp1529
a(g1144
I7374
tp1530
a(Vtellen
p1531
I7383
tp1532
a(g56
I7385
tp1533
a(g632
I7389
tp1534
a(g528
I7391
tp1535
a(Vverwoede
p1536
I7433
tp1537
a(g1329
I7436
tp1538
a(Vvoelden
p1539
I7437
tp1540
a(g1323
I7447
tp1541
a(Vtenslotte
p1542
I7452
tp1543
a(Vstruikelden
p1544
I7455
tp1545
a(Vtegelijk
p1546
I7456
tp1547
a(Vkaars
p1548
I7464
tp1549
a(Vstuiptrekkingen
p1550
I7471
tp1551
a(Vteisterden
p1552
I7472
tp1553
a(Vwij
p1554
I7488
tp1555
a(Vspieren
p1556
I7492
tp1557
a(Vstak
p1558
I7507
tp1559
a(Vlamp
p1560
I7509
tp1561
a(Vstuurde
p1562
I7512
tp1563
a(g1279
I7519
tp1564
a(g286
I7568
tp1565
a(Vbestierven
p1566
I7573
tp1567
a(g40
I7577
tp1568
a(g50
I7581
tp1569
a(g222
I7585
tp1570
a(Vtrilde
p1571
I7592
tp1572
a(Vogen
p1573
I7599
tp1574
a(g1439
I7602
tp1575
a(g36
I7604
tp1576
a(g528
I7606
tp1577
a(Vstaarden
p1578
I7608
tp1579
a(Vversteend
p1580
I7624
tp1581
a(g62
I7630
tp1582
a(g97
I7635
tp1583
a(g1327
I7673
tp1584
a(g109
I7674
tp1585
a(g178
I7681
tp1586
a(g1136
I7689
tp1587
a(g806
I7690
tp1588
a(g88
I7717
tp1589
a(Vsteunde
p1590
I7724
tp1591
a(g1424
I7737
tp1592
a(Vgeschrokken
p1593
I7738
tp1594
a(Vfluisterend
p1595
I7741
tp1596
a(g103
I7749
tp1597
a(g391
I7752
tp1598
a(g290
I7763
tp1599
a(Vstreepje
p1600
I7764
tp1601
a(Vgordijnen
p1602
I7772
tp1603
a(Vgesmoorde
p1604
I7788
tp1605
a(Vgetroffen
p1606
I7801
tp1607
a(g188
I7803
tp1608
a(Vvreselijke
p1609
I7806
tp1610
a(VWij
p1611
I7822
tp1612
a(Vstonden
p1613
I7823
tp1614
a(g789
I7832
tp1615
a(Vhelpen
p1616
I7833
tp1617
a(Vpijn
p1618
I7836
tp1619
a(Vverlichten
p1620
I7838
tp1621
a(Vstuiptrekking
p1622
I7841
tp1623
a(g1590
I7855
tp1624
a(Vprobeerden
p1625
I7864
tp1626
a(Veigenaardige
p1627
I7885
tp1628
a(g276
I7890
tp1629
a(g56
I7897
tp1630
a(Vgestalte
p1631
I7908
tp1632
a(g1428
I7915
tp1633
a(g188
I7939
tp1634
a(Vademhaling
p1635
I7962
tp1636
a(g117
I7966
tp1637
a(Vbevelen
p1638
I7971
tp1639
a(g391
I7972
tp1640
a(g1454
I7974
tp1641
a(Vgebiedend
p1642
I7977
tp1643
a(Vtoe
p1644
I7989
tp1645
a(g40
I7991
tp1646
a(g404
I8007
tp1647
a(g88
I8018
tp1648
a(g149
I8020
tp1649
a(g62
I8025
tp1650
a(VTenslotte
p1651
I8026
tp1652
a(g155
I8030
tp1653
a(Vernstig
p1654
I8034
tp1655
a(g88
I8041
tp1656
a(Vhoorden
p1657
I8043
tp1658
a(Vvoetstappen
p1659
I8045
tp1660
a(Vbinnenstormen
p1661
I8057
tp1662
a(g1349
I8072
tp1663
a(g56
I8074
tp1664
a(Vgelopen
p1665
I8083
tp1666
a(g815
I8101
tp1667
a(Vdokter
p1668
I8104
tp1669
a(Vmompelde
p1670
I8120
tp1671
a(g789
I8130
tp1672
a(g66
I8135
tp1673
a(g171
I8142
tp1674
a(g503
I8163
tp1675
a(Vhuisarts
p1676
I8182
tp1677
a(Vaankeek
p1678
I8184
tp1679
a(Vbijzonder
p1680
I8196
tp1681
a(g155
I8208
tp1682
a(Vnadenkend
p1683
I8226
tp1684
a(Vspreken
p1685
I8235
tp1686
a(g443
I8239
tp1687
a(VDaar
p1688
I8243
tp1689
a(g40
I8269
tp1690
a(Vomdraaien
p1691
I8276
tp1692
a(g733
I8285
tp1693
a(Vlegde
p1694
I8308
tp1695
a(Varm
p1696
I8313
tp1697
a(g263
I8315
tp1698
a(g391
I8317
tp1699
a(g849
I8323
tp1700
a(Vkeek
p1701
I8326
tp1702
a(g1463
I8342
tp1703
a(g1184
I8345
tp1704
a(Vgehoorsafstand
p1705
I8347
tp1706
a(Vwaren
p1707
I8348
tp1708
a(g300
I8351
tp1709
a(g741
I8358
tp1710
a(Vvergiftigd
p1711
I8362
tp1712
a(g528
I8372
tp1713
a(Vvermoedt
p1714
I8373
tp1715
a(Vdeinsde
p1716
I8376
tp1717
a(Vachteruit
p1718
I8377
tp1719
a(g421
I8403
tp1720
a(g66
I8408
tp1721
a(Vvond
p1722
I8417
tp1723
a(Vtrapleuning
p1724
I8422
tp1725
a(VLaat
p1726
I8436
tp1727
a(g1473
I8463
tp1728
a(g226
I8465
tp1729
a(Vdachten
p1730
I8480
tp1731
a(g1363
I8485
tp1732
a(Vkeken
p1733
I8499
tp1734
a(VZijn
p1735
I8505
tp1736
a(g68
I8512
tp1737
a(g286
I8516
tp1738
a(g105
I8532
tp1739
a(g1651
I8537
tp1740
a(g1347
I8547
tp1741
a(g733
I8552
tp1742
a(g462
I8559
tp1743
a(Vonder
p1744
I8560
tp1745
a(Vgepaste
p1746
I8562
tp1747
a(g698
I8574
tp1748
a(Vtoestemming
p1749
I8596
tp1750
a(g667
I8614
tp1751
a(g23
I8626
tp1752
a(Voverlijden
p1753
I8630
tp1754
a(Vgeval
p1755
I8639
tp1756
a(Vstellen
p1757
I8656
tp1758
a(Vbeter
p1759
I8665
tp1760
a(g667
I8667
tp1761
a(g109
I8669
tp1762
a(g155
I8672
tp1763
a(Vmorgenlicht
p1764
I8675
tp1765
a(Vvrees
p1766
I8677
tp1767
a(g23
I8682
tp1768
a(Vgerechtelijk
p1769
I8684
tp1770
a(Vonderzoek
p1771
I8685
tp1772
a(Vformaliteiten
p1773
I8688
tp1774
a(Vongerust
p1775
I8699
tp1776
a(Vzak
p1777
I8713
tp1778
a(g1182
I8724
tp1779
a(Vafgesloten
p1780
I8729
tp1781
a(g1780
I8738
tp1782
a(Vvertrokken
p1783
I8741
tp1784
a(g62
I8745
tp1785
a(Vhoofd
p1786
I8750
tp1787
a(g922
I8759
tp1788
a(g222
I8760
tp1789
a(g657
I8761
tp1790
a(g657
I8775
tp1791
a(Viedere
p1792
I8783
tp1793
a(Vbovendien
p1794
I8788
tp1795
a(Vkunnen
p1796
I8808
tp1797
a(Vovertuigen
p1798
I8812
tp1799
a(Vdaarentegen
p1800
I8820
tp1801
a(Vminder
p1802
I8822
tp1803
a(g528
I8827
tp1804
a(g40
I8832
tp1805
a(g249
I8839
tp1806
a(VZonder
p1807
I8842
tp1808
a(g40
I8869
tp1809
a(Vgesproken
p1810
I8870
tp1811
a(g222
I8883
tp1812
a(g522
I8886
tp1813
a(Vonderzoeken
p1814
I8907
tp1815
a(Vverklaring
p1816
I8912
tp1817
a(Veerder
p1818
I8916
tp1819
a(g280
I8921
tp1820
a(Vzaak
p1821
I8934
tp1822
a(Vspecialisten
p1823
I8954
tp1824
a(g902
I8967
tp1825
a(g675
I8973
tp1826
a(g409
I8984
tp1827
a(g1259
I8987
tp1828
a(Veens
p1829
I8994
tp1830
a(g1542
I8998
tp1831
a(g171
I9016
tp1832
a(Vnee
p1833
I9020
tp1834
a(Vbang
p1835
I9028
tp1836
a(Vdiscretie
p1837
I9035
tp1838
a(g66
I9044
tp1839
a(g391
I9047
tp1840
a(g1554
I9056
tp1841
a(g130
I9057
tp1842
a(VGod
p1843
I9064
tp1844
a(Vvergeven
p1845
I9066
tp1846
a(Vonrechte
p1847
I9071
tp1848
a(Vuur
p1849
I9081
tp1850
a(Vverliezen
p1851
I9087
tp1852
a(g40
I9096
tp1853
a(Vbesteedde
p1854
I9097
tp1855
a(Vontdekte
p1856
I9110
tp1857
a(g188
I9112
tp1858
a(g966
I9116
tp1859
a(g93
I9117
tp1860
a(Vdorp
p1861
I9125
tp1862
a(Vver
p1863
I9127
tp1864
a(g36
I9132
tp1865
a(Vbesparen
p1866
I9137
tp1867
a(g615
I9146
tp1868
a(Vkronkelende
p1869
I9153
tp1870
a(g7
I9166
tp1871
a(Vwerd
p1872
I9171
tp1873
a(Vgetrokken
p1874
I9172
tp1875
a(g966
I9182
tp1876
a(g56
I9186
tp1877
a(VHoe
p1878
I9188
tp1879
a(Vverklaren
p1880
I9195
tp1881
a(VOpgewonden
p1882
I9196
tp1883
a(g391
I9200
tp1884
a(Varme
p1885
I9207
tp1886
a(g113
I9224
tp1887
a(g222
I9229
tp1888
a(g538
I9237
tp1889
a(Vhuissleutel
p1890
I9242
tp1891
a(g337
I9243
tp1892
a(Vovernachten
p1893
I9258
tp1894
a(Vbelde
p1895
I9268
tp1896
a(g1349
I9270
tp1897
a(Vedel
p1898
I9287
tp1899
a(g66
I9297
tp1900
a(Vplotselinge
p1901
I9300
tp1902
a(g1054
I9305
tp1903
a(g56
I9320
tp1904
a(g391
I9333
tp1905
a(g188
I9351
tp1906
a(VIn
p1907
I9370
tp1908
a(g1266
I9372
tp1909
a(g286
I9373
tp1910
a(Vvertelde
p1911
I9374
tp1912
a(g188
I9379
tp1913
a(Vongeval
p1914
I9381
tp1915
a(g1821
I9407
tp1916
a(g40
I9422
tp1917
a(Vinstalleerde
p1918
I9431
tp1919
a(g1911
I9438
tp1920
a(Vzonder
p1921
I9442
tp1922
a(Vuiterste
p1923
I9457
tp1924
a(g1911
I9461
tp1925
a(g675
I9463
tp1926
a(g286
I9473
tp1927
a(g675
I9476
tp1928
a(g36
I9497
tp1929
a(Vgesprek
p1930
I9498
tp1931
a(g458
I9502
tp1932
a(Vonenigheid
p1933
I9506
tp1934
a(Vinsinuaties
p1935
I9519
tp1936
a(Vgewenst
p1937
I9531
tp1938
a(g40
I9542
tp1939
a(Vinlassen
p1940
I9546
tp1941
a(Vvertellen
p1942
I9552
tp1943
a(g651
I9556
tp1944
a(g771
I9559
tp1945
a(Vmon
p1946
I9566
tp1947
a(g1358
I9570
tp1948
a(g733
I9573
tp1949
a(Vbegrijpelijk
p1950
I9579
tp1951
a(Vfeiten
p1952
I9589
tp1953
a(Vrangschikken
p1954
I9591
tp1955
a(g1814
I9599
tp1956
a(Vbelangrijke
p1957
I9603
tp1958
a(Vonbelangrijke
p1959
I9611
tp1960
a(g263
I9627
tp1961
a(Vgoed
p1962
I9629
tp1963
a(Vbelangrijk
p1964
I9641
tp1965
a(Vmoeilijkheid
p1966
I9652
tp1967
a(Vnadrukkelijk
p1968
I9655
tp1969
a(g1923
I9663
tp1970
a(Vbesteden
p1971
I9669
tp1972
a(Vene
p1973
I9673
tp1974
a(VPast
p1975
I9683
tp1976
a(g710
I9685
tp1977
a(g710
I9694
tp1978
a(g263
I9699
tp1979
a(g66
I9701
tp1980
a(Vontbreekt
p1981
I9707
tp1982
a(g280
I9711
tp1983
a(g1814
I9715
tp1984
a(Vbijzondere
p1985
I9722
tp1986
a(Vnietige
p1987
I9726
tp1988
a(g1366
I9727
tp1989
a(Voverdreven
p1990
I9737
tp1991
a(VAh
p1992
I9753
tp1993
a(Vgebaarde
p1994
I9755
tp1995
a(g263
I9773
tp1996
a(g66
I9784
tp1997
a(Vwel
p1998
I9787
tp1999
a(g337
I9788
tp2000
a(Vvoorgehouden
p2001
I9807
tp2002
a(g364
I9828
tp2003
a(Vovergebracht
p2004
I9843
tp2005
a(Vvolgorde
p2006
I9846
tp2007
a(g528
I9877
tp2008
a(Vgisteravond
p2009
I9902
tp2010
a(g391
I9909
tp2011
a(VDe
p2012
I9910
tp2013
a(g1528
I9915
tp2014
a(Vborstelde
p2015
I9920
tp2016
a(Vleek
p2017
I9930
tp2018
a(Vherinneren
p2019
I9941
tp2020
a(g1794
I9945
tp2021
a(g263
I9955
tp2022
a(g36
I9957
tp2023
a(g95
I9958
tp2024
a(g159
I9972
tp2025
a(g2019
I9973
tp2026
a(Vbedorven
p2027
I9988
tp2028
a(g245
I10013
tp2029
a(g553
I10034
tp2030
a(g1946
I10036
tp2031
a(g892
I10038
tp2032
a(Vaangekleed
p2033
I10042
tp2034
a(Vest
p2035
I10060
tp2036
a(Vuitgestrekte
p2037
I10087
tp2038
a(g404
I10090
tp2039
a(Vglinsterde
p2040
I10091
tp2041
a(g1054
I10095
tp2042
a(Vgebroken
p2043
I10108
tp2044
a(g421
I10113
tp2045
a(g360
I10119
tp2046
a(g56
I10128
tp2047
a(Vstaren
p2048
I10131
tp2049
a(g2043
I10146
tp2050
a(Voverledene
p2051
I10159
tp2052
a(Vdwingen
p2053
I10168
tp2054
a(g90
I10170
tp2055
a(Vgeraden
p2056
I10190
tp2057
a(g117
I10193
tp2058
a(g1654
I10195
tp2059
a(g1707
I10213
tp2060
a(Vgeweest
p2061
I10219
tp2062
a(g1342
I10222
tp2063
a(Vhun
p2064
I10227
tp2065
a(g134
I10228
tp2066
a(Vverloochent
p2067
I10231
tp2068
a(g2067
I10238
tp2069
a(g1829
I10246
tp2070
a(g149
I10250
tp2071
a(g2009
I10254
tp2072
a(g66
I10258
tp2073
a(Vloop
p2074
I10259
tp2075
a(g290
I10279
tp2076
a(Vdoorlopen
p2077
I10285
tp2078
a(g1542
I10287
tp2079
a(g1942
I10295
tp2080
a(Vgewoonte
p2081
I10300
tp2082
a(Vvermoedelijk
p2083
I10332
tp2084
a(Vtoegediend
p2085
I10337
tp2086
a(Vkoffie
p2087
I10343
tp2088
a(Vingeschonken
p2089
I10344
tp2090
a(g1849
I10347
tp2091
a(Vsnelwerkend
p2092
I10367
tp2093
a(Vuitwerking
p2094
I10370
tp2095
a(g553
I10378
tp2096
a(g184
I10380
tp2097
a(Vopenbaren
p2098
I10382
tp2099
a(g184
I10391
tp2100
a(g710
I10396
tp2101
a(Vnegen
p2102
I10398
tp2103
a(Vmaal
p2104
I10412
tp2105
a(g2094
I10417
tp2106
a(Vvertragen
p2107
I10418
tp2108
a(Vmogelijkheid
p2109
I10428
tp2110
a(Vrekening
p2111
I10431
tp2112
a(g2009
I10440
tp2113
a(g263
I10457
tp2114
a(Vwonderlijke
p2115
I10459
tp2116
a(Vbeste
p2117
I10461
tp2118
a(g1880
I10476
tp2119
a(Vondertussen
p2120
I10479
tp2121
a(g93
I10484
tp2122
a(Vnaderden
p2123
I10485
tp2124
a(Vverschrikkelijk
p2125
I10501
tp2126
a(Vverteld
p2127
I10509
tp2128
a(g171
I10520
tp2129
a(g130
I10535
tp2130
a(Venkel
p2131
I10541
tp2132
a(Vvoorzorgsmaatregel
p2133
I10548
tp2134
a(g66
I10572
tp2135
a(g276
I10573
tp2136
a(g1001
I10587
tp2137
a(g1327
I10605
tp2138
a(g1156
I10606
tp2139
a(Vopleveren
p2140
I10620
tp2141
a(Vverklaarde
p2142
I10621
tp2143
a(g50
I10629
tp2144
a(Vtoespeling
p2145
I10632
tp2146
a(g441
I10635
tp2147
a(g278
I10638
tp2148
a(g50
I10642
tp2149
a(Vgekregen
p2150
I10645
tp2151
a(g1937
I10664
tp2152
a(g1683
I10667
tp2153
a(g719
I10681
tp2154
a(g7
I10689
tp2155
a(g36
I10692
tp2156
a(Vonderwierp
p2157
I10706
tp2158
a(g1973
I10727
tp2159
a(g66
I10732
tp2160
a(Veventuele
p2161
I10740
tp2162
a(Vsporen
p2163
I10741
tp2164
a(g97
I10753
tp2165
a(Vjou
p2166
I10758
tp2167
a(g105
I10772
tp2168
a(g66
I10785
tp2169
a(Vvoetsporen
p2170
I10793
tp2171
a(g1054
I10798
tp2172
a(g280
I10809
tp2173
a(g117
I10841
tp2174
a(g155
I10844
tp2175
a(Vronde
p2176
I10846
tp2177
a(g360
I10862
tp2178
a(g188
I10881
tp2179
a(VNa
p2180
I10892
tp2181
a(g832
I10893
tp2182
a(Vbespiegeling
p2183
I10894
tp2184
a(g1771
I10898
tp2185
a(g280
I10912
tp2186
a(g421
I10929
tp2187
a(g1814
I10933
tp2188
a(Vverwrongen
p2189
I10948
tp2190
a(VVervolgens
p2191
I10951
tp2192
a(g1554
I10960
tp2193
a(g1798
I10967
tp2194
a(g56
I10979
tp2195
a(Vertegenover
p2196
I10983
tp2197
a(g528
I10992
tp2198
a(g1524
I11002
tp2199
a(Vverscheidene
p2200
I11009
tp2201
a(g56
I11018
tp2202
a(Vuiterst
p2203
I11019
tp2204
a(Vmaken
p2205
I11025
tp2206
a(g1524
I11031
tp2207
a(Vtrekken
p2208
I11036
tp2209
a(Vsnelle
p2210
I11046
tp2211
a(g1349
I11049
tp2212
a(g188
I11062
tp2213
a(g56
I11064
tp2214
a(g36
I11066
tp2215
a(Vblad
p2216
I11070
tp2217
a(Vsteelpannetje
p2218
I11075
tp2219
a(g404
I11081
tp2220
a(Vdonkere
p2221
I11084
tp2222
a(g1413
I11090
tp2223
a(Vonoplettend
p2224
I11098
tp2225
a(g675
I11103
tp2226
a(g251
I11114
tp2227
a(Vproefde
p2228
I11129
tp2229
a(g117
I11141
tp2230
a(g226
I11158
tp2231
a(g1465
I11160
tp2232
a(Vversplinterd
p2233
I11170
tp2234
a(Vdoor
p2235
I11174
tp2236
a(g88
I11186
tp2237
a(Vontdekken
p2238
I11193
tp2239
a(g278
I11206
tp2240
a(Vplaatsen
p2241
I11207
tp2242
a(g2043
I11208
tp2243
a(VAch
p2244
I11228
tp2245
a(Vmat
p2246
I11231
tp2247
a(g155
I11242
tp2248
a(g56
I11265
tp2249
a(Vverzonken
p2250
I11268
tp2251
a(Vrij
p2252
I11276
tp2253
a(g733
I11284
tp2254
a(g1439
I11305
tp2255
a(g88
I11306
tp2256
a(Vstrychnine
p2257
I11308
tp2258
a(g1439
I11310
tp2259
a(g171
I11316
tp2260
a(g62
I11318
tp2261
a(Vzeggen
p2262
I11323
tp2263
a(g553
I11328
tp2264
a(g1389
I11349
tp2265
a(Vvingers
p2266
I11369
tp2267
a(Vronddraaien
p2268
I11370
tp2269
a(Vblinkende
p2270
I11377
tp2271
a(g1288
I11388
tp2272
a(Vaarzeling
p2273
I11401
tp2274
a(g56
I11404
tp2275
a(Voorspronkelijk
p2276
I11419
tp2277
a(g66
I11428
tp2278
a(g495
I11431
tp2279
a(g657
I11433
tp2280
a(g2157
I11449
tp2281
a(g1771
I11459
tp2282
a(g36
I11466
tp2283
a(g1680
I11484
tp2284
a(Vbestuderen
p2285
I11497
tp2286
a(g40
I11543
tp2287
a(Vdoe
p2288
I11547
tp2289
a(g1133
I11550
tp2290
a(g949
I11565
tp2291
a(Vpoeder
p2292
I11567
tp2293
a(Vslot
p2294
I11578
tp2295
a(g155
I11582
tp2296
a(g127
I11590
tp2297
a(Vwant
p2298
I11600
tp2299
a(g88
I11605
tp2300
a(g56
I11610
tp2301
a(Vdonkergroen
p2302
I11617
tp2303
a(Vherkenbaar
p2304
I11624
tp2305
a(g280
I11632
tp2306
a(g787
I11636
tp2307
a(g159
I11638
tp2308
a(g50
I11641
tp2309
a(g134
I11645
tp2310
a(VVijf
p2311
I11658
tp2312
a(g188
I11661
tp2313
a(g577
I11678
tp2314
a(g300
I11697
tp2315
a(g1342
I11700
tp2316
a(Vwaarschijnlijk
p2317
I11708
tp2318
a(g222
I11743
tp2319
a(g50
I11745
tp2320
a(g88
I11758
tp2321
a(Vverstijven
p2322
I11762
tp2323
a(Vinteressant
p2324
I11765
tp2325
a(g781
I11775
tp2326
a(VBovendien
p2327
I11818
tp2328
a(g1054
I11829
tp2329
a(Vaangeboren
p2330
I11847
tp2331
a(Vzes
p2332
I11857
tp2333
a(Vveronderstel
p2334
I11865
tp2335
a(g2332
I11887
tp2336
a(Vrond
p2337
I11898
tp2338
a(Vverwoest
p2339
I11925
tp2340
a(g36
I11930
tp2341
a(g155
I11958
tp2342
a(Vdoorzoeken
p2343
I11961
tp2344
a(Vslaakte
p2345
I11963
tp2346
a(g1349
I11986
tp2347
a(Vkritisch
p2348
I12003
tp2349
a(g222
I12012
tp2350
a(g553
I12017
tp2351
a(Vpostpapier
p2352
I12020
tp2353
a(g255
I12021
tp2354
a(g188
I12024
tp2355
a(Vtestament
p2356
I12036
tp2357
a(g1998
I12052
tp2358
a(Vhem
p2359
I12063
tp2360
a(Vtas
p2361
I12066
tp2362
a(g56
I12073
tp2363
a(g1054
I12080
tp2364
a(Vvernietigd
p2365
I12089
tp2366
a(Vkaarsvet
p2367
I12093
tp2368
a(g155
I12096
tp2369
a(g251
I12104
tp2370
a(Vbinnengekomen
p2371
I12107
tp2372
a(g66
I12122
tp2373
a(g1266
I12127
tp2374
a(g1757
I12129
tp2375
a(g1504
I12137
tp2376
a(Vhier
p2377
I12146
tp2378
a(g1771
I12156
tp2379
a(Vvervolgens
p2380
I12162
tp2381
a(g1349
I12165
tp2382
a(g105
I12170
tp2383
a(g50
I12172
tp2384
a(g683
I12178
tp2385
a(Vnaar
p2386
I12198
tp2387
a(g222
I12205
tp2388
a(Vbewondering
p2389
I12230
tp2390
a(g2250
I12231
tp2391
a(g1054
I12239
tp2392
a(g188
I12260
tp2393
a(Vlust
p2394
I12261
tp2395
a(Vverdeling
p2396
I12268
tp2397
a(g404
I12276
tp2398
a(Vkort
p2399
I12278
tp2400
a(g127
I12279
tp2401
a(g40
I12283
tp2402
a(g528
I12308
tp2403
a(g210
I12310
tp2404
a(Vgun
p2405
I12311
tp2406
a(g1515
I12314
tp2407
a(Vbelangrijker
p2408
I12322
tp2409
a(g149
I12326
tp2410
a(g66
I12335
tp2411
a(g56
I12348
tp2412
a(g849
I12364
tp2413
a(Vondervragen
p2414
I12377
tp2415
a(Vwitte
p2416
I12396
tp2417
a(g222
I12401
tp2418
a(g1257
I12408
tp2419
a(g1154
I12410
tp2420
a(g1156
I12411
tp2421
a(g2043
I12422
tp2422
a(Vmademoiselle
p2423
I12431
tp2424
a(Vnietwaar
p2425
I12446
tp2426
a(VTien
p2427
I12447
tp2428
a(Vgehecht
p2429
I12463
tp2430
a(Vzul
p2431
I12472
tp2432
a(Vtegen
p2433
I12478
tp2434
a(g66
I12488
tp2435
a(Vvolledige
p2436
I12490
tp2437
a(Vmeneer
p2438
I12493
tp2439
a(g657
I12495
tp2440
a(g1757
I12498
tp2441
a(g402
I12507
tp2442
a(g40
I12509
tp2443
a(g936
I12516
tp2444
a(g62
I12520
tp2445
a(g391
I12538
tp2446
a(g40
I12541
tp2447
a(g245
I12549
tp2448
a(Vkleinste
p2449
I12552
tp2450
a(Vbijzonderheden
p2451
I12553
tp2452
a(Vgeheimen
p2453
I12562
tp2454
a(g360
I12569
tp2455
a(Vtenminste
p2456
I12583
tp2457
a(g245
I12589
tp2458
a(Vleven
p2459
I12590
tp2460
a(g712
I12591
tp2461
a(Vmoordenaar
p2462
I12606
tp2463
a(Vgerechte
p2464
I12607
tp2465
a(Ver
p2466
I12626
tp2467
a(Vhebben
p2468
I12639
tp2469
a(g155
I12668
tp2470
a(Vzakelijke
p2471
I12670
tp2472
a(g577
I12689
tp2473
a(g40
I12700
tp2474
a(g2438
I12703
tp2475
a(g36
I12705
tp2476
a(g1849
I12712
tp2477
a(g528
I12719
tp2478
a(g1998
I12720
tp2479
a(Vlater
p2480
I12722
tp2481
a(g147
I12725
tp2482
a(g2466
I12733
tp2483
a(Vboos
p2484
I12742
tp2485
a(g375
I12752
tp2486
a(g1106
I12770
tp2487
a(Vhebt
p2488
I12784
tp2489
a(Vbedrogen
p2490
I12790
tp2491
a(g66
I12793
tp2492
a(g1305
I12799
tp2493
a(g103
I12805
tp2494
a(g188
I12816
tp2495
a(Vdak
p2496
I12817
tp2497
a(g2150
I12821
tp2498
a(Vgestoken
p2499
I12828
tp2500
a(g421
I12838
tp2501
a(g263
I12843
tp2502
a(Vnou
p2503
I12844
tp2504
a(g667
I12857
tp2505
a(g66
I12875
tp2506
a(g1327
I12877
tp2507
a(g503
I12882
tp2508
a(Vgenomen
p2509
I12887
tp2510
a(Vhoorde
p2511
I12914
tp2512
a(g40
I12918
tp2513
a(Vwie
p2514
I12940
tp2515
a(g280
I12952
tp2516
a(g88
I12969
tp2517
a(Vkop
p2518
I12973
tp2519
a(g409
I12976
tp2520
a(Vmoest
p2521
I12981
tp2522
a(g712
I12982
tp2523
a(g1439
I13027
tp2524
a(g219
I13055
tp2525
a(Valsof
p2526
I13064
tp2527
a(g337
I13066
tp2528
a(g404
I13071
tp2529
a(g286
I13075
tp2530
a(g698
I13080
tp2531
a(g188
I13089
tp2532
a(Vwaard
p2533
I13096
tp2534
a(g188
I13100
tp2535
a(Vbedankte
p2536
I13107
tp2537
a(Vvoelen
p2538
I13117
tp2539
a(g155
I13121
tp2540
a(g66
I13123
tp2541
a(g290
I13132
tp2542
a(g249
I13142
tp2543
a(g155
I13148
tp2544
a(g528
I13171
tp2545
a(g280
I13173
tp2546
a(g1054
I13176
tp2547
a(g249
I13177
tp2548
a(g1482
I13179
tp2549
a(g606
I13182
tp2550
a(g280
I13201
tp2551
a(g1957
I13213
tp2552
a(g1792
I13221
tp2553
a(g1279
I13225
tp2554
a(g1418
I13241
tp2555
a(Vetenstijd
p2556
I13247
tp2557
a(g667
I13250
tp2558
a(g1418
I13291
tp2559
a(Vsleutel
p2560
I13292
tp2561
a(g1327
I13297
tp2562
a(g226
I13299
tp2563
a(VUit
p2564
I13322
tp2565
a(Vgevonden
p2566
I13338
tp2567
a(g1573
I13341
tp2568
a(g1349
I13344
tp2569
a(g1786
I13346
tp2570
a(g210
I13347
tp2571
a(g263
I13348
tp2572
a(Vheeft
p2573
I13354
tp2574
a(g2566
I13357
tp2575
a(g222
I13368
tp2576
a(g577
I13369
tp2577
a(g1327
I13377
tp2578
a(g409
I13378
tp2579
a(Vdonkergroene
p2580
I13383
tp2581
a(Vnogal
p2582
I13385
tp2583
a(Vdaar
p2584
I13395
tp2585
a(Vja
p2586
I13399
tp2587
a(g204
I13417
tp2588
a(g2302
I13421
tp2589
a(Vlichtgroene
p2590
I13423
tp2591
a(g40
I13436
tp2592
a(g2456
I13446
tp2593
a(g806
I13451
tp2594
a(g391
I13453
tp2595
a(g1426
I13470
tp2596
a(g2009
I13487
tp2597
a(Vingenomen
p2598
I13492
tp2599
a(VGisteravond
p2600
I13493
tp2601
a(g40
I13496
tp2602
a(g2009
I13503
tp2603
a(g2598
I13506
tp2604
a(Vzeker
p2605
I13513
tp2606
a(g222
I13518
tp2607
a(g127
I13521
tp2608
a(Vdaarna
p2609
I13528
tp2610
a(Vopgehelderd
p2611
I13545
tp2612
a(g577
I13551
tp2613
a(g1439
I13554
tp2614
a(Vtekenen
p2615
I13560
tp2616
a(VToen
p2617
I13563
tp2618
a(g2009
I13569
tp2619
a(Vbinnenkwamen
p2620
I13570
tp2621
a(g109
I13576
tp2622
a(Vkunt
p2623
I13585
tp2624
a(g1942
I13586
tp2625
a(g40
I13599
tp2626
a(g1942
I13613
tp2627
a(g2009
I13621
tp2628
a(g2386
I13626
tp2629
a(Vkeuken
p2630
I13628
tp2631
a(g36
I13632
tp2632
a(Voveral
p2633
I13639
tp2634
a(g651
I13658
tp2635
a(g66
I13668
tp2636
a(g1814
I13672
tp2637
a(g986
I13681
tp2638
a(g88
I13691
tp2639
a(g40
I13695
tp2640
a(g155
I13702
tp2641
a(Vslenterde
p2642
I13704
tp2643
a(Vbloemenbedden
p2644
I13711
tp2645
a(VNu
p2646
I13719
tp2647
a(Vonderhouden
p2648
I13734
tp2649
a(Vlandgoed
p2650
I13738
tp2651
a(g566
I13752
tp2652
a(Vjonge
p2653
I13762
tp2654
a(Vmoderne
p2655
I13773
tp2656
a(Vlange
p2657
I13776
tp2658
a(Vtegenwoordig
p2659
I13783
tp2660
a(g1962
I13791
tp2661
a(VTenminste
p2662
I13793
tp2663
a(g257
I13802
tp2664
a(Vsturen
p2665
I13806
tp2666
a(VTot
p2667
I13809
tp2668
a(Vdienst
p2669
I13811
tp2670
a(g88
I13816
tp2671
a(g1424
I13821
tp2672
a(g418
I13822
tp2673
a(g1418
I13832
tp2674
a(Vkartonnen
p2675
I13851
tp2676
a(g2566
I13866
tp2677
a(g50
I13891
tp2678
a(g127
I13902
tp2679
a(g2598
I13904
tp2680
a(g553
I13906
tp2681
a(g391
I13914
tp2682
a(g66
I13927
tp2683
a(Vlas
p2684
I13928
tp2685
a(g40
I13941
tp2686
a(VOok
p2687
I13945
tp2688
a(Vapotheker
p2689
I13971
tp2690
a(Vverkoopt
p2691
I13976
tp2692
a(g88
I13978
tp2693
a(g97
I13979
tp2694
a(Verop
p2695
I13981
tp2696
a(g435
I13991
tp2697
a(Vmerken
p2698
I14004
tp2699
a(g40
I14031
tp2700
a(g171
I14032
tp2701
a(Vreageren
p2702
I14039
tp2703
a(g222
I14041
tp2704
a(Vgenoegen
p2705
I14058
tp2706
a(Vmeteen
p2707
I14066
tp2708
a(g66
I14069
tp2709
a(g40
I14076
tp2710
a(g1479
I14079
tp2711
a(g1998
I14081
tp2712
a(g249
I14083
tp2713
a(g1942
I14085
tp2714
a(g2009
I14091
tp2715
a(g542
I14092
tp2716
a(g1707
I14095
tp2717
a(Vkun
p2718
I14099
tp2719
a(Vadressen
p2720
I14107
tp2721
a(g806
I14110
tp2722
a(g290
I14115
tp2723
a(g391
I14122
tp2724
a(g2019
I14138
tp2725
a(g435
I14166
tp2726
a(Vspijt
p2727
I14172
tp2728
a(g40
I14176
tp2729
a(g1292
I14177
tp2730
a(g337
I14180
tp2731
a(g188
I14197
tp2732
a(Vteleurstelling
p2733
I14200
tp2734
a(g806
I14209
tp2735
a(VHad
p2736
I14223
tp2737
a(Vkamer
p2738
I14236
tp2739
a(g1054
I14251
tp2740
a(g222
I14252
tp2741
a(Vsuiker
p2742
I14262
tp2743
a(Vrum
p2744
I14266
tp2745
a(Verin
p2746
I14267
tp2747
a(g66
I14274
tp2748
a(g787
I14277
tp2749
a(g40
I14283
tp2750
a(g1602
I14285
tp2751
a(g263
I14301
tp2752
a(Vziet
p2753
I14308
tp2754
a(Vkeukenmeid
p2755
I14313
tp2756
a(Vgroente
p2757
I14321
tp2758
a(Vavondeten
p2759
I14325
tp2760
a(g226
I14339
tp2761
a(g657
I14341
tp2762
a(Vlinkervleugel
p2763
I14354
tp2764
a(g1439
I14368
tp2765
a(g1454
I14377
tp2766
a(Vbracht
p2767
I14398
tp2768
a(Vnacht
p2769
I14410
tp2770
a(g986
I14416
tp2771
a(g40
I14432
tp2772
a(VDus
p2773
I14435
tp2774
a(g66
I14481
tp2775
a(g280
I14488
tp2776
a(g280
I14496
tp2777
a(g2216
I14505
tp2778
a(g222
I14519
tp2779
a(Vopgevallen
p2780
I14523
tp2781
a(g712
I14538
tp2782
a(g149
I14549
tp2783
a(g712
I14555
tp2784
a(Vvragen
p2785
I14559
tp2786
a(g741
I14567
tp2787
a(g155
I14590
tp2788
a(g222
I14593
tp2789
a(g259
I14599
tp2790
a(g66
I14607
tp2791
a(g462
I14616
tp2792
a(g62
I14622
tp2793
a(Vgeleverd
p2794
I14628
tp2795
a(g249
I14631
tp2796
a(g1372
I14637
tp2797
a(g582
I14650
tp2798
a(g710
I14670
tp2799
a(g40
I14675
tp2800
a(g2586
I14693
tp2801
a(g2438
I14694
tp2802
a(g50
I14707
tp2803
a(g528
I14714
tp2804
a(g249
I14722
tp2805
a(g40
I14733
tp2806
a(g1439
I14736
tp2807
a(g1524
I14738
tp2808
a(g1542
I14745
tp2809
a(Vtoen
p2810
I14751
tp2811
a(g155
I14756
tp2812
a(g1524
I14758
tp2813
a(Vergens
p2814
I14783
tp2815
a(g577
I14791
tp2816
a(g62
I14799
tp2817
a(g249
I14805
tp2818
a(g105
I14816
tp2819
a(g40
I14828
tp2820
a(g1270
I14830
tp2821
a(Vuitgehaald
p2822
I14831
tp2823
a(Vherhaalde
p2824
I14842
tp2825
a(g528
I14848
tp2826
a(g1245
I14862
tp2827
a(g528
I14863
tp2828
a(g88
I14873
tp2829
a(g528
I14874
tp2830
a(g204
I14879
tp2831
a(g40
I14904
tp2832
a(Vverliet
p2833
I14915
tp2834
a(Vopgekropte
p2835
I14921
tp2836
a(Vgrootse
p2837
I14934
tp2838
a(Vontdekking
p2839
I14935
tp2840
a(g2839
I14940
tp2841
a(g1711
I14949
tp2842
a(Vopgedronken
p2843
I14972
tp2844
a(Vchocola
p2845
I14986
tp2846
a(g2257
I14987
tp2847
a(g36
I14993
tp2848
a(Vanders
p2849
I14998
tp2850
a(g97
I15001
tp2851
a(VAls
p2852
I15016
tp2853
a(g136
I15026
tp2854
a(Vdebatteren
p2855
I15032
tp2856
a(g46
I15036
tp2857
a(g155
I15042
tp2858
a(g88
I15043
tp2859
a(g251
I15044
tp2860
a(g56
I15058
tp2861
a(Vbevattingsvermogen
p2862
I15065
tp2863
a(g155
I15072
tp2864
a(g364
I15080
tp2865
a(g155
I15091
tp2866
a(g300
I15092
tp2867
a(g2166
I15094
tp2868
a(Vgedachte
p2869
I15116
tp2870
a(g646
I15122
tp2871
a(g50
I15134
tp2872
a(g1288
I15145
tp2873
a(Vsleutels
p2874
I15159
tp2875
a(g117
I15160
tp2876
a(g1288
I15161
tp2877
a(g2200
I15163
tp2878
a(Vgeoefende
p2879
I15167
tp2880
a(Vdraaiend
p2881
I15172
tp2882
a(g2560
I15185
tp2883
a(g675
I15201
tp2884
a(Vgoedkeurend
p2885
I15222
tp2886
a(g222
I15240
tp2887
a(g226
I15241
tp2888
a(g960
I15249
tp2889
a(Vverdienen
p2890
I15250
tp2891
a(g553
I15258
tp2892
a(Vmeer
p2893
I15259
tp2894
a(g222
I15262
tp2895
a(g56
I15264
tp2896
a(g249
I15283
tp2897
a(Vopgeleverd
p2898
I15306
tp2899
a(g117
I15309
tp2900
a(Vverkreukelde
p2901
I15312
tp2902
a(g1349
I15314
tp2903
a(g222
I15323
tp2904
a(Vgewone
p2905
I15329
tp2906
a(g113
I15332
tp2907
a(g188
I15340
tp2908
a(g286
I15342
tp2909
a(Vgekrabbeld
p2910
I15343
tp2911
a(g2566
I15350
tp2912
a(VHerken
p2913
I15360
tp2914
a(Vbetekenen
p2915
I15374
tp2916
a(Vdenken
p2917
I15390
tp2918
a(g188
I15394
tp2919
a(g1707
I15403
tp2920
a(g2736
I15405
tp2921
a(g188
I15407
tp2922
a(g36
I15426
tp2923
a(g184
I15427
tp2924
a(g528
I15428
tp2925
a(g553
I15429
tp2926
a(g50
I15435
tp2927
a(Vtheorieen
p2928
I15446
tp2929
a(g286
I15454
tp2930
a(Vafleidden
p2931
I15456
tp2932
a(g1814
I15466
tp2933
a(g251
I15481
tp2934
a(Vellendige
p2935
I15486
tp2936
a(g1680
I15503
tp2937
a(g1794
I15509
tp2938
a(Vhoopt
p2939
I15520
tp2940
a(Vaangezien
p2941
I15523
tp2942
a(g2509
I15532
tp2943
a(g188
I15540
tp2944
a(g2257
I15542
tp2945
a(g2238
I15550
tp2946
a(g1696
I15563
tp2947
a(Vmijne
p2948
I15566
tp2949
a(g2705
I15574
tp2950
a(Vinteresseren
p2951
I15577
tp2952
a(Vrespecteren
p2953
I15586
tp2954
a(g117
I15589
tp2955
a(g1613
I15615
tp2956
a(g1554
I15617
tp2957
a(Vachtergelaten
p2958
I15620
tp2959
a(Vherhalen
p2960
I15627
tp2961
a(Vluisterde
p2962
I15636
tp2963
a(g669
I15644
tp2964
a(g36
I15661
tp2965
a(g2423
I15667
tp2966
a(g1463
I15698
tp2967
a(Vvriend
p2968
I15728
tp2969
a(g56
I15732
tp2970
a(Vieder
p2971
I15737
tp2972
a(g188
I15739
tp2973
a(g56
I15743
tp2974
a(Vafzonderlijke
p2975
I15754
tp2976
a(Vonderging
p2977
I15759
tp2978
a(g479
I15762
tp2979
a(Vbeschrijven
p2980
I15772
tp2981
a(Vverbijsterd
p2982
I15775
tp2983
a(g1542
I15782
tp2984
a(g2466
I15797
tp2985
a(g188
I15812
tp2986
a(g528
I15819
tp2987
a(Vhinderde
p2988
I15823
tp2989
a(g50
I15830
tp2990
a(g1942
I15836
tp2991
a(VUiteindelijk
p2992
I15861
tp2993
a(Voud
p2994
I15868
tp2995
a(g748
I15874
tp2996
a(g719
I15891
tp2997
a(Vschok
p2998
I15909
tp2999
a(g936
I15912
tp3000
a(Vafgelopen
p3001
I15915
tp3002
a(Vstreek
p3003
I15921
tp3004
a(Vhersteld
p3005
I15931
tp3006
a(g117
I15932
tp3007
a(Vtegenstelling
p3008
I15941
tp3009
a(Vvroege
p3010
I15955
tp3011
a(Vverzenden
p3012
I15966
tp3013
a(Vgestuurd
p3014
I15977
tp3015
a(Voverlijdensberichten
p3016
I15982
tp3017
a(Vkranten
p3018
I15985
tp3019
a(Vmeebrengt
p3020
I16000
tp3021
a(Vvorderingen
p3022
I16008
tp3023
a(Vresultaten
p3024
I16014
tp3025
a(g2438
I16034
tp3026
a(g1654
I16038
tp3027
a(Vvalse
p3028
I16047
tp3029
a(Vkoesteren
p3030
I16050
tp3031
a(g1942
I16055
tp3032
a(g11
I16062
tp3033
a(g117
I16075
tp3034
a(g2695
I16079
tp3035
a(g796
I16114
tp3036
a(g188
I16124
tp3037
a(g1363
I16132
tp3038
a(Vongedwongen
p3039
I16136
tp3040
a(g619
I16189
tp3041
a(Vmeelevend
p3042
I16190
tp3043
a(g1168
I16214
tp3044
a(g251
I16215
tp3045
a(g88
I16226
tp3046
a(g337
I16230
tp3047
a(g66
I16236
tp3048
a(g2334
I16237
tp3049
a(g222
I16248
tp3050
a(g337
I16249
tp3051
a(Vmeegenomen
p3052
I16255
tp3053
a(g263
I16264
tp3054
a(g226
I16266
tp3055
a(Vopgekomen
p3056
I16268
tp3057
a(Vcontroleren
p3058
I16271
tp3059
a(Vbewaren
p3060
I16273
tp3061
a(g1439
I16287
tp3062
a(g263
I16303
tp3063
a(g66
I16307
tp3064
a(g2584
I16315
tp3065
a(g1088
I16344
tp3066
a(Vvoordeel
p3067
I16365
tp3068
a(g651
I16381
tp3069
a(Vverzeker
p3070
I16383
tp3071
a(g88
I16385
tp3072
a(Vzich
p3073
I16388
tp3074
a(g849
I16400
tp3075
a(g651
I16401
tp3076
a(Vuitgenodigd
p3077
I16403
tp3078
a(g1206
I16404
tp3079
a(Vontbijten
p3080
I16408
tp3081
a(g1707
I16410
tp3082
a(Veetkamer
p3083
I16414
tp3084
a(g23
I16418
tp3085
a(g171
I16422
tp3086
a(g2180
I16425
tp3087
a(Vgebeurtenis
p3088
I16428
tp3089
a(Vleden
p3090
I16446
tp3091
a(Vdegelijke
p3092
I16452
tp3093
a(Vopvoeding
p3094
I16453
tp3095
a(g1166
I16456
tp3096
a(Vdeden
p3097
I16461
tp3098
a(Vzelfbeheersing
p3099
I16470
tp3100
a(g849
I16473
tp3101
a(g806
I16477
tp3102
a(Vverdriet
p3103
I16485
tp3104
a(Vaangedaan
p3105
I16495
tp3106
a(Vpersoonlijke
p3107
I16498
tp3108
a(g251
I16512
tp3109
a(g155
I16513
tp3110
a(Vwalgelijk
p3111
I16518
tp3112
a(Vschijnheilige
p3113
I16519
tp3114
a(Vdiepbedroefde
p3115
I16524
tp3116
a(g2359
I16536
tp3117
a(Vverdachten
p3118
I16537
tp3119
a(g1625
I16541
tp3120
a(Vopkomende
p3121
I16563
tp3122
a(Vangst
p3123
I16564
tp3124
a(Vongestraft
p3125
I16572
tp3126
a(g968
I16578
tp3127
a(g919
I16579
tp3128
a(Vgetekende
p3129
I16589
tp3130
a(g566
I16591
tp3131
a(g928
I16593
tp3132
a(g1786
I16611
tp3133
a(Velegant
p3134
I16616
tp3135
a(Vraadselachtig
p3136
I16618
tp3137
a(g458
I16626
tp3138
a(Vjurk
p3139
I16627
tp3140
a(g251
I16634
tp3141
a(Vvielen
p3142
I16640
tp3143
a(g188
I16648
tp3144
a(Vondoorgrondelijke
p3145
I16649
tp3146
a(g1347
I16658
tp3147
a(Vkrachtige
p3148
I16676
tp3149
a(g74
I16677
tp3150
a(Vdomineerde
p3151
I16681
tp3152
a(g130
I16689
tp3153
a(g1349
I16697
tp3154
a(g222
I16704
tp3155
a(Vbeestachtige
p3156
I16726
tp3157
a(g646
I16753
tp3158
a(Vpakken
p3159
I16759
tp3160
a(g1288
I16816
tp3161
a(g462
I16820
tp3162
a(g105
I16828
tp3163
a(g117
I16833
tp3164
a(g409
I16835
tp3165
a(g553
I16850
tp3166
a(Vnoemen
p3167
I16856
tp3168
a(g2780
I16866
tp3169
a(g276
I16875
tp3170
a(g1685
I16882
tp3171
a(g68
I16889
tp3172
a(g2142
I16927
tp3173
a(g360
I16960
tp3174
a(g40
I16961
tp3175
a(Vgelegenheid
p3176
I16964
tp3177
a(Vfluisteren
p3178
I16970
tp3179
a(g144
I16972
tp3180
a(g1769
I16975
tp3181
a(g1771
I16976
tp3182
a(Vingesteld
p3183
I16978
tp3184
a(g771
I16985
tp3185
a(Vnieuwsgierigheid
p3186
I16993
tp3187
a(g1054
I16995
tp3188
a(g263
I16996
tp3189
a(Vluistert
p3190
I17000
tp3191
a(g1829
I17002
tp3192
a(g2968
I17011
tp3193
a(Vzorgen
p3194
I17015
tp3195
a(g2423
I17018
tp3196
a(g222
I17048
tp3197
a(g327
I17051
tp3198
a(g1814
I17064
tp3199
a(g222
I17082
tp3200
a(g358
I17084
tp3201
a(g64
I17087
tp3202
a(g828
I17090
tp3203
a(g657
I17099
tp3204
a(Vtestamenten
p3205
I17100
tp3206
a(g962
I17119
tp3207
a(g1473
I17121
tp3208
a(g144
I17140
tp3209
a(g188
I17145
tp3210
a(g1771
I17146
tp3211
a(g88
I17160
tp3212
a(Vnarigheid
p3213
I17164
tp3214
a(g1771
I17169
tp3215
a(g1866
I17172
tp3216
a(Vuitgesloten
p3217
I17177
tp3218
a(g1816
I17182
tp3219
a(VPientere
p3220
I17185
tp3221
a(g428
I17199
tp3222
a(g1473
I17204
tp3223
a(Vaarzelend
p3224
I17208
tp3225
a(g1554
I17212
tp3226
a(g1433
I17214
tp3227
a(Vverschijnen
p3228
I17215
tp3229
a(VJij
p3230
I17220
tp3231
a(g806
I17227
tp3232
a(Vviel
p3233
I17228
tp3234
a(g1197
I17233
tp3235
a(g2905
I17237
tp3236
a(Vgetuigenverklaring
p3237
I17242
tp3238
a(Vter
p3239
I17246
tp3240
a(Vbevestiging
p3241
I17247
tp3242
a(Vformaliteit
p3243
I17251
tp3244
a(g2852
I17267
tp3245
a(g1197
I17274
tp3246
a(g2012
I17293
tp3247
a(Vregeling
p3248
I17308
tp3249
a(g1609
I17323
tp3250
a(g787
I17354
tp3251
a(g2009
I17360
tp3252
a(g641
I17365
tp3253
a(g1088
I17370
tp3254
a(g2150
I17372
tp3255
a(Vbriefje
p3256
I17384
tp3257
a(g1088
I17389
tp3258
a(Vwilde
p3259
I17396
tp3260
a(g188
I17399
tp3261
a(g327
I17412
tp3262
a(g249
I17414
tp3263
a(g1208
I17425
tp3264
a(g257
I17429
tp3265
a(g771
I17437
tp3266
a(g245
I17444
tp3267
a(VWells
p3268
I17445
tp3269
a(g249
I17456
tp3270
a(g2456
I17459
tp3271
a(g1753
I17469
tp3272
a(Valgemeen
p3273
I17489
tp3274
a(g171
I17496
tp3275
a(g495
I17510
tp3276
a(g1168
I17511
tp3277
a(g1959
I17523
tp3278
a(g1476
I17526
tp3279
a(Vvermaakte
p3280
I17529
tp3281
a(g2356
I17534
tp3282
a(Vgedateerd
p3283
I17535
tp3284
a(g84
I17541
tp3285
a(g769
I17570
tp3286
a(g88
I17575
tp3287
a(Vvolgens
p3288
I17581
tp3289
a(Vvoorwaarden
p3290
I17583
tp3291
a(g2650
I17593
tp3292
a(g226
I17597
tp3293
a(Vstiefmoeder
p3294
I17602
tp3295
a(g781
I17610
tp3296
a(g56
I17622
tp3297
a(g421
I17631
tp3298
a(g2396
I17637
tp3299
a(Vrecht
p3300
I17652
tp3301
a(Vverviel
p3302
I17656
tp3303
a(g50
I17674
tp3304
a(Vgener
p3305
I17677
tp3306
a(g222
I17704
tp3307
a(g577
I17713
tp3308
a(g3205
I17720
tp3309
a(Vongeldig
p3310
I17723
tp3311
a(g2356
I17736
tp3312
a(Vvoordien
p3313
I17744
tp3314
a(g775
I17767
tp3315
a(g184
I17781
tp3316
a(Vlid
p3317
I17785
tp3318
a(Vbegunstigen
p3319
I17790
tp3320
a(VVeronderstel
p3321
I17791
tp3322
a(g188
I17799
tp3323
a(Vgunste
p3324
I17805
tp3325
a(g222
I17818
tp3326
a(Vverder
p3327
I17837
tp3328
a(g66
I17842
tp3329
a(Vbespraken
p3330
I17853
tp3331
a(Vdoornemen
p3332
I17861
tp3333
a(g2356
I17867
tp3334
a(Vwaarin
p3335
I17870
tp3336
a(Vnaliet
p3337
I17878
tp3338
a(Vgewend
p3339
I17894
tp3340
a(Vpapieren
p3341
I17906
tp3342
a(Vdoorkijken
p3343
I17907
tp3344
a(g1821
I17919
tp3345
a(Veenvoudiger
p3346
I17922
tp3347
a(g117
I17933
tp3348
a(g136
I17936
tp3349
a(Vzullen
p3350
I17940
tp3351
a(g428
I17951
tp3352
a(Vbelangrijkste
p3353
I17961
tp3354
a(g188
I17964
tp3355
a(g3332
I17972
tp3356
a(g2356
I17985
tp3357
a(g188
I17996
tp3358
a(g1197
I18014
tp3359
a(g2968
I18016
tp3360
a(g222
I18019
tp3361
a(g188
I18021
tp3362
a(g1054
I18022
tp3363
a(g36
I18031
tp3364
a(Vverschroeide
p3365
I18043
tp3366
a(g2566
I18057
tp3367
a(g441
I18059
tp3368
a(Vkorte
p3369
I18066
tp3370
a(g1816
I18067
tp3371
a(g2566
I18073
tp3372
a(g2994
I18081
tp3373
a(Vbewijzen
p3374
I18126
tp3375
a(g97
I18139
tp3376
a(g2785
I18152
tp3377
a(g2180
I18161
tp3378
a(g2785
I18170
tp3379
a(g787
I18178
tp3380
a(g222
I18185
tp3381
a(g3073
I18191
tp3382
a(Vhelemaal
p3383
I18192
tp3384
a(g337
I18201
tp3385
a(g155
I18209
tp3386
a(g1399
I18213
tp3387
a(Vvragend
p3388
I18221
tp3389
a(g3224
I18240
tp3390
a(g849
I18249
tp3391
a(Vschuchter
p3392
I18264
tp3393
a(g657
I18265
tp3394
a(Vgebogen
p3395
I18272
tp3396
a(g2994
I18278
tp3397
a(g62
I18285
tp3398
a(g828
I18287
tp3399
a(g1573
I18288
tp3400
a(Vleken
p3401
I18291
tp3402
a(g1685
I18302
tp3403
a(g428
I18305
tp3404
a(g144
I18308
tp3405
a(g787
I18321
tp3406
a(g505
I18331
tp3407
a(Vminachtend
p3408
I18336
tp3409
a(g188
I18342
tp3410
a(g109
I18344
tp3411
a(g787
I18356
tp3412
a(g134
I18377
tp3413
a(g56
I18394
tp3414
a(g188
I18403
tp3415
a(g327
I18420
tp3416
a(g147
I18422
tp3417
a(g56
I18423
tp3418
a(g796
I18429
tp3419
a(Vgebeurde
p3420
I18430
tp3421
a(g404
I18445
tp3422
a(Vgeroepen
p3423
I18456
tp3424
a(g719
I18461
tp3425
a(Vbinnenkomen
p3426
I18463
tp3427
a(Vonderaan
p3428
I18470
tp3429
a(g1744
I18474
tp3430
a(Vhandtekening
p3431
I18486
tp3432
a(Vlag
p3433
I18494
tp3434
a(Voverheen
p3435
I18498
tp3436
a(Vtekenden
p3437
I18501
tp3438
a(g787
I18510
tp3439
a(g40
I18513
tp3440
a(g1054
I18516
tp3441
a(g147
I18523
tp3442
a(g986
I18554
tp3443
a(VKan
p3444
I18565
tp3445
a(g97
I18572
tp3446
a(g144
I18578
tp3447
a(Vvoldoende
p3448
I18593
tp3449
a(g651
I18596
tp3450
a(g619
I18606
tp3451
a(g391
I18613
tp3452
a(g1611
I18623
tp3453
a(g1054
I18631
tp3454
a(g210
I18638
tp3455
a(g155
I18646
tp3456
a(Vschraapte
p3457
I18653
tp3458
a(g849
I18662
tp3459
a(g384
I18698
tp3460
a(g2852
I18704
tp3461
a(g50
I18706
tp3462
a(g2356
I18725
tp3463
a(Vbepalingen
p3464
I18738
tp3465
a(g2127
I18739
tp3466
a(g1088
I18744
tp3467
a(Verover
p3468
I18745
tp3469
a(Vgeraadpleegd
p3470
I18746
tp3471
a(Vervan
p3472
I18762
tp3473
a(g421
I18788
tp3474
a(g528
I18801
tp3475
a(g280
I18805
tp3476
a(g302
I18812
tp3477
a(Vophelderen
p3478
I18816
tp3479
a(g1821
I18819
tp3480
a(g2356
I18827
tp3481
a(g66
I18830
tp3482
a(g2334
I18831
tp3483
a(Vinstantie
p3484
I18843
tp3485
a(g1305
I18850
tp3486
a(Vpas
p3487
I18857
tp3488
a(g1733
I18885
tp3489
a(g36
I18888
tp3490
a(g56
I18891
tp3491
a(Vlangsreed
p3492
I18892
tp3493
a(g1694
I18918
tp3494
a(g1292
I18923
tp3495
a(g88
I18925
tp3496
a(g922
I18927
tp3497
a(g404
I18931
tp3498
a(g528
I18939
tp3499
a(Vhart
p3500
I18942
tp3501
a(VJohns
p3502
I18955
tp3503
a(g665
I18956
tp3504
a(g1288
I18965
tp3505
a(Vbevrijden
p3506
I18968
tp3507
a(g62
I18977
tp3508
a(g178
I18984
tp3509
a(VZij
p3510
I18989
tp3511
a(Vdringend
p3512
I18995
tp3513
a(g40
I19002
tp3514
a(g171
I19004
tp3515
a(Vaandacht
p3516
I19005
tp3517
a(Vbesteed
p3518
I19007
tp3519
a(g771
I19017
tp3520
a(g2646
I19019
tp3521
a(Vgebleken
p3522
I19025
tp3523
a(g226
I19029
tp3524
a(g907
I19035
tp3525
a(g40
I19036
tp3526
a(g1962
I19045
tp3527
a(Vblik
p3528
I19067
tp3529
a(g849
I19084
tp3530
a(g68
I19086
tp3531
a(g1613
I19096
tp3532
a(Vbedroefd
p3533
I19099
tp3534
a(Vbittere
p3535
I19107
tp3536
a(g458
I19113
tp3537
a(Voogleden
p3538
I19115
tp3539
a(g1342
I19116
tp3540
a(g1783
I19130
tp3541
a(Vnet
p3542
I19140
tp3543
a(Vnachtdienst
p3544
I19143
tp3545
a(g1088
I19155
tp3546
a(g428
I19163
tp3547
a(VKom
p3548
I19169
tp3549
a(Vmee
p3550
I19170
tp3551
a(VZorg
p3552
I19189
tp3553
a(g458
I19192
tp3554
a(g421
I19199
tp3555
a(g441
I19215
tp3556
a(g1701
I19220
tp3557
a(Vargwanend
p3558
I19221
tp3559
a(g1054
I19227
tp3560
a(g1814
I19241
tp3561
a(Vgevangenis
p3562
I19248
tp3563
a(g3562
I19253
tp3564
a(g3487
I19260
tp3565
a(g286
I19265
tp3566
a(Vgestorven
p3567
I19271
tp3568
a(g1305
I19284
tp3569
a(Vvinnig
p3570
I19287
tp3571
a(g56
I19302
tp3572
a(g130
I19316
tp3573
a(Vmomenteel
p3574
I19321
tp3575
a(g1769
I19328
tp3576
a(g849
I19337
tp3577
a(g1327
I19346
tp3578
a(g113
I19349
tp3579
a(Vvent
p3580
I19353
tp3581
a(g2852
I19358
tp3582
a(g56
I19359
tp3583
a(Vgreintje
p3584
I19361
tp3585
a(g144
I19364
tp3586
a(g56
I19365
tp3587
a(g245
I19371
tp3588
a(g1701
I19376
tp3589
a(g88
I19385
tp3590
a(Vkomt
p3591
I19386
tp3592
a(Vgeluisterd
p3593
I19395
tp3594
a(g1054
I19400
tp3595
a(Vdr
p3596
I19403
tp3597
a(g159
I19416
tp3598
a(g949
I19428
tp3599
a(g737
I19437
tp3600
a(Vgezond
p3601
I19451
tp3602
a(Vverstand
p3603
I19452
tp3604
a(g571
I19454
tp3605
a(Vvermoorden
p3606
I19476
tp3607
a(g1885
I19478
tp3608
a(g2646
I19480
tp3609
a(Valles
p3610
I19485
tp3611
a(g796
I19486
tp3612
a(g1479
I19487
tp3613
a(g263
I19490
tp3614
a(g1769
I19497
tp3615
a(g1771
I19498
tp3616
a(g1054
I19507
tp3617
a(Vonderdrukken
p3618
I19523
tp3619
a(g2359
I19531
tp3620
a(g226
I19534
tp3621
a(g263
I19557
tp3622
a(Vvliegenpapier
p3623
I19566
tp3624
a(g50
I19577
tp3625
a(g88
I19580
tp3626
a(g178
I19584
tp3627
a(Vherbergen
p3628
I19593
tp3629
a(g249
I19613
tp3630
a(g960
I19623
tp3631
a(g88
I19631
tp3632
a(g190
I19634
tp3633
a(Vvolle
p3634
I19637
tp3635
a(Vijlings
p3636
I19651
tp3637
a(g2738
I19653
tp3638
a(g36
I19668
tp3639
a(g1156
I19677
tp3640
a(g56
I19683
tp3641
a(g796
I19699
tp3642
a(Vrekenen
p3643
I19709
tp3644
a(VZal
p3645
I19710
tp3646
a(g327
I19728
tp3647
a(g149
I19733
tp3648
a(Vvierendelen
p3649
I19735
tp3650
a(g280
I19737
tp3651
a(g421
I19752
tp3652
a(Vhangen
p3653
I19758
tp3654
a(Vaasgieren
p3655
I19787
tp3656
a(VHaar
p3657
I19808
tp3658
a(g222
I19810
tp3659
a(g2456
I19811
tp3660
a(Vverschijnt
p3661
I19815
tp3662
a(g1654
I19830
tp3663
a(g300
I19841
tp3664
a(g40
I19845
tp3665
a(g2262
I19882
tp3666
a(Vknipperde
p3667
I19899
tp3668
a(g458
I19920
tp3669
a(g1347
I19924
tp3670
a(g40
I19925
tp3671
a(g222
I19935
tp3672
a(g409
I19943
tp3673
a(g337
I19951
tp3674
a(g1372
I19953
tp3675
a(g155
I19961
tp3676
a(g171
I19966
tp3677
a(VToch
p3678
I19968
tp3679
a(g88
I19972
tp3680
a(g2456
I19986
tp3681
a(g769
I19994
tp3682
a(Vverhouding
p3683
I19995
tp3684
a(Vbegin
p3685
I20002
tp3686
a(Vmn
p3687
I20005
tp3688
a(g66
I20008
tp3689
a(g1292
I20009
tp3690
a(g528
I20018
tp3691
a(g1266
I20023
tp3692
a(Vsoms
p3693
I20032
tp3694
a(g36
I20045
tp3695
a(g2971
I20053
tp3696
a(g222
I20061
tp3697
a(Vveroorloven
p3698
I20073
tp3699
a(Vbeschermde
p3700
I20084
tp3701
a(Vhandige
p3702
I20097
tp3703
a(g86
I20101
tp3704
a(g3042
I20110
tp3705
a(g2423
I20114
tp3706
a(Vvuur
p3707
I20135
tp3708
a(Venergie
p3709
I20137
tp3710
a(g56
I20174
tp3711
a(g50
I20195
tp3712
a(Vdalen
p3713
I20203
tp3714
a(Vtegenkomen
p3715
I20213
tp3716
a(g791
I20230
tp3717
a(g1103
I20238
tp3718
a(g263
I20247
tp3719
a(Vontmoeten
p3720
I20261
tp3721
a(g226
I20273
tp3722
a(g1780
I20278
tp3723
a(Vbewaarde
p3724
I20309
tp3725
a(g56
I20321
tp3726
a(g1366
I20325
tp3727
a(g36
I20339
tp3728
a(Vstomverbaasd
p3729
I20358
tp3730
a(g1245
I20360
tp3731
a(g1777
I20369
tp3732
a(g2514
I20395
tp3733
a(g184
I20398
tp3734
a(Vbeantwoordde
p3735
I20414
tp3736
a(g188
I20423
tp3737
a(g2244
I20426
tp3738
a(g1849
I20439
tp3739
a(g127
I20440
tp3740
a(g1780
I20445
tp3741
a(VWaarschijnlijk
p3742
I20453
tp3743
a(Vgang
p3744
I20460
tp3745
a(Vschoorsteenmantel
p3746
I20471
tp3747
a(g1665
I20472
tp3748
a(g1542
I20498
tp3749
a(g188
I20515
tp3750
a(Vverband
p3751
I20519
tp3752
a(g95
I20534
tp3753
a(g2365
I20539
tp3754
a(g2566
I20542
tp3755
a(g3472
I20546
tp3756
a(g2377
I20557
tp3757
a(g789
I20559
tp3758
a(Vkomen
p3759
I20560
tp3760
a(g1998
I20572
tp3761
a(Vverraadde
p3762
I20578
tp3763
a(g1964
I20588
tp3764
a(g88
I20591
tp3765
a(Vnemen
p3766
I20596
tp3767
a(VTja
p3768
I20602
tp3769
a(g188
I20607
tp3770
a(g40
I20612
tp3771
a(Vander
p3772
I20617
tp3773
a(g458
I20628
tp3774
a(g66
I20644
tp3775
a(g62
I20645
tp3776
a(g263
I20663
tp3777
a(g1998
I20670
tp3778
a(g2365
I20671
tp3779
a(g171
I20680
tp3780
a(Vonbeproefd
p3781
I20682
tp3782
a(g2738
I20688
tp3783
a(Vzodra
p3784
I20694
tp3785
a(g3448
I20696
tp3786
a(Vbekomen
p3787
I20701
tp3788
a(g1279
I20727
tp3789
a(g911
I20738
tp3790
a(g1054
I20740
tp3791
a(g2115
I20746
tp3792
a(g681
I20753
tp3793
a(g50
I20765
tp3794
a(g3003
I20766
tp3795
a(Vloslaten
p3796
I20780
tp3797
a(g1288
I20792
tp3798
a(g769
I20795
tp3799
a(Vwar
p3800
I20830
tp3801
a(g2767
I20831
tp3802
a(g184
I20845
tp3803
a(g134
I20860
tp3804
a(Vflinke
p3805
I20874
tp3806
a(g2262
I20883
tp3807
a(g226
I20908
tp3808
a(Vhouden
p3809
I20912
tp3810
a(g2244
I20913
tp3811
a(g300
I20945
tp3812
a(Vwaardeer
p3813
I20957
tp3814
a(g184
I20964
tp3815
a(g553
I20965
tp3816
a(g528
I20966
tp3817
a(g34
I20967
tp3818
a(Vslechte
p3819
I20972
tp3820
a(g1125
I20973
tp3821
a(Vdag
p3822
I20984
tp3823
a(g40
I20986
tp3824
a(g34
I20991
tp3825
a(g710
I20994
tp3826
a(g3822
I20995
tp3827
a(g337
I21000
tp3828
a(Vschijnt
p3829
I21021
tp3830
a(g286
I21036
tp3831
a(Vkreeg
p3832
I21040
tp3833
a(Vneergelaten
p3834
I21051
tp3835
a(g74
I21056
tp3836
a(Vliep
p3837
I21068
tp3838
a(Vwerkelijkheid
p3839
I21087
tp3840
a(g1279
I21094
tp3841
a(g66
I21099
tp3842
a(Vergernis
p3843
I21110
tp3844
a(Vaangewend
p3845
I21121
tp3846
a(g528
I21126
tp3847
a(g877
I21127
tp3848
a(Vhele
p3849
I21129
tp3850
a(g88
I21141
tp3851
a(g849
I21143
tp3852
a(Vverstandig
p3853
I21144
tp3854
a(Vconstateren
p3855
I21162
tp3856
a(g1389
I21167
tp3857
a(Vgauw
p3858
I21171
tp3859
a(g66
I21175
tp3860
a(g3837
I21176
tp3861
a(Voog
p3862
I21186
tp3863
a(g571
I21191
tp3864
a(Vterzijde
p3865
I21196
tp3866
a(g3853
I21204
tp3867
a(g93
I21212
tp3868
a(g476
I21220
tp3869
a(g66
I21236
tp3870
a(g50
I21241
tp3871
a(Vleiden
p3872
I21254
tp3873
a(g263
I21259
tp3874
a(g849
I21269
tp3875
a(Vteneergeslagen
p3876
I21270
tp3877
a(g88
I21288
tp3878
a(g3853
I21293
tp3879
a(g3548
I21296
tp3880
a(g667
I21297
tp3881
a(g56
I21298
tp3882
a(g1542
I21299
tp3883
a(g1998
I21311
tp3884
a(g1861
I21321
tp3885
a(Vopenslaande
p3886
I21335
tp3887
a(g2423
I21362
tp3888
a(g3388
I21369
tp3889
a(g1305
I21390
tp3890
a(g796
I21408
tp3891
a(g327
I21409
tp3892
a(Vlege
p3893
I21416
tp3894
a(g1942
I21429
tp3895
a(g1554
I21446
tp3896
a(g3487
I21451
tp3897
a(Vopzij
p3898
I21461
tp3899
a(g966
I21463
tp3900
a(g208
I21465
tp3901
a(g56
I21471
tp3902
a(g733
I21472
tp3903
a(g939
I21478
tp3904
a(g105
I21479
tp3905
a(g50
I21481
tp3906
a(Vkat
p3907
I21483
tp3908
a(Vglinsterden
p3909
I21485
tp3910
a(Vsmaragden
p3911
I21488
tp3912
a(g2968
I21490
tp3913
a(g56
I21492
tp3914
a(g1542
I21493
tp3915
a(Vonmogelijk
p3916
I21505
tp3917
a(g1245
I21507
tp3918
a(g3858
I21524
tp3919
a(g36
I21542
tp3920
a(g88
I21546
tp3921
a(g1816
I21549
tp3922
a(g188
I21552
tp3923
a(g667
I21566
tp3924
a(g40
I21571
tp3925
a(g553
I21574
tp3926
a(g3056
I21575
tp3927
a(g375
I21583
tp3928
a(g2839
I21588
tp3929
a(g675
I21593
tp3930
a(g109
I21596
tp3931
a(g1911
I21606
tp3932
a(g1524
I21625
tp3933
a(g2566
I21632
tp3934
a(g3283
I21633
tp3935
a(g84
I21640
tp3936
a(Vtrouwens
p3937
I21667
tp3938
a(g528
I21668
tp3939
a(g36
I21681
tp3940
a(g1454
I21682
tp3941
a(g1433
I21684
tp3942
a(Vhiervan
p3943
I21688
tp3944
a(g117
I21689
tp3945
a(g210
I21693
tp3946
a(g1998
I21704
tp3947
a(g1106
I21705
tp3948
a(Vverwarrend
p3949
I21706
tp3950
a(g3205
I21709
tp3951
a(g1349
I21716
tp3952
a(g251
I21717
tp3953
a(g286
I21718
tp3954
a(g188
I21729
tp3955
a(VMon
p3956
I21735
tp3957
a(Vbrief
p3958
I21745
tp3959
a(Voverkomen
p3960
I21747
tp3961
a(g2521
I21757
tp3962
a(Vspellen
p3963
I21758
tp3964
a(g136
I21764
tp3965
a(g2334
I21771
tp3966
a(g928
I21774
tp3967
a(g1439
I21789
tp3968
a(g188
I21805
tp3969
a(g147
I21815
tp3970
a(g2780
I21826
tp3971
a(g826
I21831
tp3972
a(Vformuleringen
p3973
I21833
tp3974
a(g286
I21848
tp3975
a(g50
I21855
tp3976
a(g474
I21857
tp3977
a(g2915
I21863
tp3978
a(Vbetekende
p3979
I21866
tp3980
a(g286
I21870
tp3981
a(g1439
I21872
tp3982
a(g62
I21877
tp3983
a(g1166
I21886
tp3984
a(g2566
I21891
tp3985
a(g1962
I21893
tp3986
a(g2869
I21902
tp3987
a(Vdergelijke
p3988
I21913
tp3989
a(g286
I21914
tp3990
a(Vvoorkomen
p3991
I21917
tp3992
a(g2109
I21919
tp3993
a(Vbijzonderheid
p3994
I21925
tp3995
a(Vverwarring
p3996
I21929
tp3997
a(Vlagen
p3998
I21942
tp3999
a(Vteelaarde
p4000
I21946
tp4001
a(g86
I21953
tp4002
a(g1144
I21956
tp4003
a(g249
I21964
tp4004
a(g184
I21966
tp4005
a(Vachterlaten
p4006
I21975
tp4007
a(g388
I21981
tp4008
a(g1665
I21982
tp4009
a(g4000
I21993
tp4010
a(g2166
I22010
tp4011
a(g40
I22012
tp4012
a(g88
I22013
tp4013
a(g1372
I22014
tp4014
a(g423
I22016
tp4015
a(g1707
I22017
tp4016
a(g1439
I22027
tp4017
a(Vtuinlieden
p4018
I22030
tp4019
a(g36
I22038
tp4020
a(g2371
I22042
tp4021
a(g409
I22049
tp4022
a(g62
I22052
tp4023
a(g103
I22065
tp4024
a(g789
I22072
tp4025
a(g222
I22075
tp4026
a(Vgemaakt
p4027
I22087
tp4028
a(g278
I22090
tp4029
a(g4018
I22091
tp4030
a(g1433
I22095
tp4031
a(g210
I22102
tp4032
a(Vveronderstelling
p4033
I22104
tp4034
a(Vtoegeven
p4035
I22116
tp4036
a(g88
I22120
tp4037
a(g1349
I22125
tp4038
a(g286
I22128
tp4039
a(g1707
I22133
tp4040
a(Vliggende
p4041
I22159
tp4042
a(g1816
I22160
tp4043
a(g222
I22186
tp4044
a(g1342
I22187
tp4045
a(g130
I22189
tp4046
a(Vstukje
p4047
I22203
tp4048
a(g2189
I22204
tp4049
a(g421
I22210
tp4050
a(g155
I22212
tp4051
a(g1151
I22214
tp4052
a(g1439
I22221
tp4053
a(g769
I22222
tp4054
a(Vsleutelring
p4055
I22224
tp4056
a(g1418
I22230
tp4057
a(g36
I22238
tp4058
a(g571
I22239
tp4059
a(g4055
I22243
tp4060
a(g4055
I22249
tp4061
a(g40
I22251
tp4062
a(Vspiksplinternieuw
p4063
I22258
tp4064
a(Vveronderstellen
p4065
I22262
tp4066
a(Voorspronkelijke
p4067
I22267
tp4068
a(g2499
I22275
tp4069
a(g418
I22285
tp4070
a(g56
I22295
tp4071
a(g263
I22298
tp4072
a(g787
I22300
tp4073
a(g3994
I22304
tp4074
a(Vduidelijker
p4075
I22308
tp4076
a(g2200
I22318
tp4077
a(g3067
I22322
tp4078
a(g66
I22327
tp4079
a(g263
I22334
tp4080
a(g56
I22336
tp4081
a(VBad
p4082
I22342
tp4083
a(g97
I22368
tp4084
a(Vgisternacht
p4085
I22370
tp4086
a(Vuitgekiend
p4087
I22380
tp4088
a(g222
I22389
tp4089
a(g1001
I22404
tp4090
a(g1439
I22406
tp4091
a(g56
I22407
tp4092
a(g1168
I22412
tp4093
a(Vsnuiter
p4094
I22447
tp4095
a(g404
I22453
tp4096
a(g188
I22457
tp4097
a(g553
I22461
tp4098
a(g719
I22489
tp4099
a(g36
I22490
tp4100
a(Veind
p4101
I22494
tp4102
a(g1479
I22510
tp4103
a(g210
I22527
tp4104
a(g36
I22536
tp4105
a(Vdeuren
p4106
I22541
tp4107
a(g88
I22543
tp4108
a(g1342
I22550
tp4109
a(g1515
I22551
tp4110
a(Vvernietigen
p4111
I22558
tp4112
a(g1247
I22565
tp4113
a(g2371
I22571
tp4114
a(VBewonderenswaardig
p4115
I22577
tp4116
a(g157
I22579
tp4117
a(g40
I22584
tp4118
a(g263
I22599
tp4119
a(g922
I22600
tp4120
a(Vvolgt
p4121
I22602
tp4122
a(Vovertuiging
p4123
I22621
tp4124
a(g458
I22634
tp4125
a(g1998
I22639
tp4126
a(Vopendoen
p4127
I22640
tp4128
a(Vvreemde
p4129
I22657
tp4130
a(g1156
I22664
tp4131
a(g56
I22677
tp4132
a(g249
I22685
tp4133
a(g1029
I22700
tp4134
a(Vopengedaan
p4135
I22701
tp4136
a(g2109
I22709
tp4137
a(g337
I22717
tp4138
a(g2386
I22725
tp4139
a(Vgrendelen
p4140
I22739
tp4141
a(Vzeg
p4142
I22747
tp4143
a(g849
I22751
tp4144
a(g263
I22752
tp4145
a(g1796
I22760
tp4146
a(g796
I22763
tp4147
a(Vschoonmoeder
p4148
I22779
tp4149
a(Vopgevangen
p4150
I22786
tp4151
a(g337
I22790
tp4152
a(g404
I22797
tp4153
a(g219
I22806
tp4154
a(g849
I22809
tp4155
a(Vgesloten
p4156
I22814
tp4157
a(Vdus
p4158
I22857
tp4159
a(g2111
I22859
tp4160
a(Vkreunde
p4161
I22864
tp4162
a(Vtheorie
p4163
I22884
tp4164
a(g4163
I22889
tp4165
a(Vschieten
p4166
I22890
tp4167
a(Vgepikeerd
p4168
I22897
tp4169
a(g1707
I22903
tp4170
a(Vaangekomen
p4171
I22906
tp4172
a(g50
I22921
tp4173
a(g1366
I22923
tp4174
a(Vsigaretten
p4175
I22925
tp4176
a(Vgebruikte
p4177
I22942
tp4178
a(g334
I22958
tp4179
a(g1872
I22983
tp4180
a(g1874
I22986
tp4181
a(Vslungelige
p4182
I22989
tp4183
a(g13
I22993
tp4184
a(Vstraat
p4185
I22996
tp4186
a(g681
I22998
tp4187
a(g251
I23007
tp4188
a(g4129
I23011
tp4189
a(Vmengeling
p4190
I23012
tp4191
a(g1829
I23019
tp4192
a(Vleunde
p4193
I23023
tp4194
a(g56
I23048
tp4195
a(Vogenblikje
p4196
I23054
tp4197
a(g88
I23063
tp4198
a(g1208
I23084
tp4199
a(g50
I23100
tp4200
a(Vbevochtigde
p4201
I23108
tp4202
a(Vdroge
p4203
I23110
tp4204
a(g849
I23125
tp4205
a(g178
I23126
tp4206
a(g3567
I23128
tp4207
a(g781
I23132
tp4208
a(g1942
I23154
tp4209
a(Voverhand
p4210
I23169
tp4211
a(Vfluisterde
p4212
I23177
tp4213
a(g263
I23186
tp4214
a(g171
I23188
tp4215
a(g1305
I23197
tp4216
a(g56
I23219
tp4217
a(g1654
I23220
tp4218
a(g144
I23223
tp4219
a(g1816
I23225
tp4220
a(Vafleggen
p4221
I23227
tp4222
a(g1771
I23230
tp4223
a(g1504
I23232
tp4224
a(g66
I23237
tp4225
a(g2646
I23254
tp4226
a(g66
I23260
tp4227
a(g36
I23265
tp4228
a(g88
I23270
tp4229
a(g56
I23279
tp4230
a(Vbewegingen
p4231
I23288
tp4232
a(Vwenkbrauwen
p4233
I23291
tp4234
a(Vgroener
p4235
I23298
tp4236
a(g56
I23301
tp4237
a(Vdiepe
p4238
I23303
tp4239
a(g2012
I23324
tp4240
a(g2611
I23329
tp4241
a(Vverbijstert
p4242
I23340
tp4243
a(g1957
I23349
tp4244
a(g50
I23358
tp4245
a(g577
I23359
tp4246
a(g188
I23367
tp4247
a(g346
I23368
tp4248
a(g3233
I23370
tp4249
a(g553
I23384
tp4250
a(g263
I23400
tp4251
a(g245
I23403
tp4252
a(g1245
I23407
tp4253
a(g1957
I23414
tp4254
a(Vgekleed
p4255
I23418
tp4256
a(g819
I23422
tp4257
a(g50
I23453
tp4258
a(g88
I23461
tp4259
a(g1769
I23466
tp4260
a(g1771
I23467
tp4261
a(g2928
I23482
tp4262
a(Vwankelen
p4263
I23489
tp4264
a(Vstommelingen
p4265
I23494
tp4266
a(g553
I23502
tp4267
a(g155
I23518
tp4268
a(Vgebrand
p4269
I23519
tp4270
a(g391
I23542
tp4271
a(g249
I23550
tp4272
a(g88
I23557
tp4273
a(g348
I23558
tp4274
a(g1439
I23565
tp4275
a(Vergeren
p4276
I23570
tp4277
a(g117
I23573
tp4278
a(g50
I23578
tp4279
a(g651
I23583
tp4280
a(g771
I23588
tp4281
a(g2586
I23591
tp4282
a(g775
I23612
tp4283
a(g302
I23639
tp4284
a(Vgeliefd
p4285
I23640
tp4286
a(g222
I23644
tp4287
a(Veer
p4288
I23653
tp4289
a(g249
I23677
tp4290
a(g36
I23678
tp4291
a(g1845
I23681
tp4292
a(g781
I23688
tp4293
a(Varresteren
p4294
I23689
tp4295
a(g249
I23696
tp4296
a(Vredden
p4297
I23698
tp4298
a(g1769
I23705
tp4299
a(g188
I23710
tp4300
a(g56
I23717
tp4301
a(g188
I23718
tp4302
a(Vonderhoud
p4303
I23719
tp4304
a(g2687
I23722
tp4305
a(Vwandelingen
p4306
I23726
tp4307
a(Vgepasseerd
p4308
I23735
tp4309
a(Vvertrouwen
p4310
I23741
tp4311
a(Vingewonnen
p4312
I23767
tp4313
a(g40
I23774
tp4314
a(g1349
I23785
tp4315
a(g40
I23809
tp4316
a(Vboerderij
p4317
I23815
tp4318
a(Vterugliep
p4319
I23821
tp4320
a(g86
I23828
tp4321
a(g1829
I23860
tp4322
a(g1665
I23864
tp4323
a(g1349
I23884
tp4324
a(g4158
I23893
tp4325
a(g2687
I23903
tp4326
a(g184
I23906
tp4327
a(g1829
I23907
tp4328
a(Vhe
p4329
I23911
tp4330
a(g2586
I23913
tp4331
a(g13
I23918
tp4332
a(VHoezo
p4333
I23931
tp4334
a(g13
I23937
tp4335
a(g184
I23940
tp4336
a(g1290
I23946
tp4337
a(g2456
I23957
tp4338
a(g528
I23968
tp4339
a(g66
I23974
tp4340
a(g3837
I23975
tp4341
a(Vgezeten
p4342
I24014
tp4343
a(Vminderwaardiger
p4344
I24016
tp4345
a(g188
I24023
tp4346
a(g50
I24026
tp4347
a(g2115
I24034
tp4348
a(g1439
I24039
tp4349
a(g88
I24046
tp4350
a(Vvergiste
p4351
I24051
tp4352
a(g50
I24056
tp4353
a(g249
I24067
tp4354
a(g97
I24068
tp4355
a(Vstemmen
p4356
I24077
tp4357
a(g226
I24099
tp4358
a(Vbinnengebracht
p4359
I24102
tp4360
a(g2971
I24105
tp4361
a(g1849
I24108
tp4362
a(Vvooronderzoek
p4363
I24112
tp4364
a(g40
I24127
tp4365
a(g3237
I24136
tp4366
a(Vinleidende
p4367
I24141
tp4368
a(g1773
I24142
tp4369
a(g939
I24143
tp4370
a(Vafgehandeld
p4371
I24144
tp4372
a(Videntificeerde
p4373
I24153
tp4374
a(g1816
I24160
tp4375
a(Vheerste
p4376
I24163
tp4377
a(Vspecialist
p4378
I24176
tp4379
a(Vmen
p4380
I24179
tp4381
a(g56
I24182
tp4382
a(g50
I24184
tp4383
a(g832
I24189
tp4384
a(g222
I24191
tp4385
a(g1266
I24194
tp4386
a(g286
I24195
tp4387
a(g2451
I24210
tp4388
a(g88
I24215
tp4389
a(g3567
I24217
tp4390
a(Voordelen
p4391
I24223
tp4392
a(Vteruggevonden
p4393
I24228
tp4394
a(Vbinnengekregen
p4395
I24237
tp4396
a(g1439
I24241
tp4397
a(g2573
I24252
tp4398
a(g4395
I24253
tp4399
a(g435
I24260
tp4400
a(Vonwaarschijnlijk
p4401
I24261
tp4402
a(Vhuishoudelijke
p4403
I24266
tp4404
a(Vdoeleinden
p4405
I24267
tp4406
a(g769
I24271
tp4407
a(g582
I24272
tp4408
a(Vbeperkende
p4409
I24276
tp4410
a(g3464
I24277
tp4411
a(g528
I24290
tp4412
a(Vuitgewezen
p4413
I24291
tp4414
a(g2085
I24296
tp4415
a(Vuitrijden
p4416
I24314
tp4417
a(g849
I24323
tp4418
a(Vheengegaan
p4419
I24326
tp4420
a(g1942
I24331
tp4421
a(g3420
I24335
tp4422
a(g683
I24343
tp4423
a(g4342
I24374
tp4424
a(g251
I24376
tp4425
a(g2092
I24392
tp4426
a(Vtreden
p4427
I24396
tp4428
a(g1849
I24402
tp4429
a(g263
I24405
tp4430
a(g2598
I24406
tp4431
a(g23
I24409
tp4432
a(g2094
I24412
tp4433
a(g88
I24429
tp4434
a(g949
I24437
tp4435
a(g1849
I24439
tp4436
a(g2843
I24441
tp4437
a(Vsymptomen
p4438
I24444
tp4439
a(g1008
I24448
tp4440
a(g710
I24451
tp4441
a(g46
I24458
tp4442
a(g88
I24462
tp4443
a(g2598
I24471
tp4444
a(Vmonster
p4445
I24496
tp4446
a(g2218
I24502
tp4447
a(Vspoor
p4448
I24510
tp4449
a(g421
I24515
tp4450
a(Vgrinniken
p4451
I24520
tp4452
a(Vwist
p4453
I24522
tp4454
a(g249
I24542
tp4455
a(Vresultaat
p4456
I24546
tp4457
a(Vsmaak
p4458
I24557
tp4459
a(g159
I24560
tp4460
a(g155
I24568
tp4461
a(g4458
I24572
tp4462
a(g2235
I24575
tp4463
a(g474
I24581
tp4464
a(g50
I24604
tp4465
a(Vzichzelf
p4466
I24605
tp4467
a(g50
I24613
tp4468
a(Voverheersen
p4469
I24616
tp4470
a(g2893
I24621
tp4471
a(g2085
I24627
tp4472
a(Vonbekende
p4473
I24637
tp4474
a(g50
I24650
tp4475
a(g222
I24663
tp4476
a(Vbeeindigd
p4477
I24668
tp4478
a(Vbevestigde
p4479
I24671
tp4480
a(g2109
I24677
tp4481
a(Vverwierp
p4482
I24680
tp4483
a(g2051
I24684
tp4484
a(Vzwak
p4485
I24689
tp4486
a(Vuitstekende
p4487
I24695
tp4488
a(g657
I24709
tp4489
a(g710
I24720
tp4490
a(Vgetuige
p4491
I24721
tp4492
a(g1816
I24723
tp4493
a(g2824
I24732
tp4494
a(g56
I24752
tp4495
a(g3224
I24757
tp4496
a(Vopmerken
p4497
I24764
tp4498
a(g117
I24768
tp4499
a(Vbemoedigend
p4500
I24776
tp4501
a(Vtoedracht
p4502
I24788
tp4503
a(g159
I24800
tp4504
a(g3872
I24801
tp4505
a(Vverdere
p4506
I24803
tp4507
a(Vopheldering
p4508
I24804
tp4509
a(g1288
I24813
tp4510
a(g1349
I24815
tp4511
a(Vleggen
p4512
I24817
tp4513
a(Vwil
p4514
I24827
tp4515
a(Vtoegeschreven
p4516
I24838
tp4517
a(Vnatuurlijke
p4518
I24840
tp4519
a(g196
I24853
tp4520
a(g3
I24869
tp4521
a(g155
I24873
tp4522
a(g1001
I24876
tp4523
a(VLawrence
p4524
I24877
tp4525
a(g3327
I24878
tp4526
a(g88
I24879
tp4527
a(Vgevallen
p4528
I24882
tp4529
a(g2094
I24887
tp4530
a(g2085
I24891
tp4531
a(g1245
I24899
tp4532
a(Vdosis
p4533
I24912
tp4534
a(g50
I24913
tp4535
a(g2509
I24917
tp4536
a(g2051
I24928
tp4537
a(g90
I24933
tp4538
a(Vopgeroepen
p4539
I24949
tp4540
a(g36
I24953
tp4541
a(Vsuggereert
p4542
I24959
tp4543
a(g3916
I24962
tp4544
a(g1942
I24969
tp4545
a(g136
I24975
tp4546
a(g3916
I24983
tp4547
a(g1901
I24988
tp4548
a(Vgevolge
p4549
I24991
tp4550
a(g249
I24995
tp4551
a(g2657
I24998
tp4552
a(Vperiode
p4553
I24999
tp4554
a(g1874
I25014
tp4555
a(g13
I25031
tp4556
a(g2598
I25034
tp4557
a(g4549
I25046
tp4558
a(g188
I25052
tp4559
a(Vhoeveelheid
p4560
I25055
tp4561
a(Vklaarmaken
p4562
I25064
tp4563
a(Vleegdrinken
p4564
I25075
tp4565
a(g1880
I25081
tp4566
a(g2566
I25086
tp4567
a(Vverwaarlozen
p4568
I25099
tp4569
a(Vbetrekking
p4570
I25101
tp4571
a(g4033
I25108
tp4572
a(Vbelachelijk
p4573
I25110
tp4574
a(g1818
I25115
tp4575
a(g2689
I25120
tp4576
a(Vklaargemaakt
p4577
I25125
tp4578
a(Vvergist
p4579
I25127
tp4580
a(g251
I25140
tp4581
a(g710
I25142
tp4582
a(g4491
I25143
tp4583
a(g4539
I25145
tp4584
a(g2109
I25149
tp4585
a(g222
I25153
tp4586
a(g553
I25154
tp4587
a(VIntegendeel
p4588
I25157
tp4589
a(g1542
I25173
tp4590
a(g56
I25189
tp4591
a(g50
I25202
tp4592
a(g2380
I25207
tp4593
a(g1001
I25214
tp4594
a(g56
I25215
tp4595
a(g3237
I25224
tp4596
a(g86
I25238
tp4597
a(g144
I25242
tp4598
a(g710
I25249
tp4599
a(g2203
I25259
tp4600
a(g188
I25262
tp4601
a(g341
I25265
tp4602
a(g384
I25266
tp4603
a(g1911
I25275
tp4604
a(g105
I25279
tp4605
a(g113
I25288
tp4606
a(Vaankleden
p4607
I25294
tp4608
a(g188
I25301
tp4609
a(g1347
I25322
tp4610
a(g1374
I25325
tp4611
a(g1197
I25326
tp4612
a(g2962
I25329
tp4613
a(g1389
I25332
tp4614
a(g2012
I25363
tp4615
a(g280
I25367
tp4616
a(g66
I25370
tp4617
a(g149
I25372
tp4618
a(g4506
I25388
tp4619
a(g936
I25389
tp4620
a(g40
I25400
tp4621
a(g719
I25406
tp4622
a(g1911
I25408
tp4623
a(g806
I25421
tp4624
a(g384
I25429
tp4625
a(g105
I25457
tp4626
a(g3327
I25478
tp4627
a(g155
I25485
tp4628
a(g388
I25491
tp4629
a(g528
I25527
tp4630
a(Vmoment
p4631
I25531
tp4632
a(g1342
I25536
tp4633
a(g423
I25541
tp4634
a(g4106
I25544
tp4635
a(g1872
I25553
tp4636
a(g4356
I25565
tp4637
a(g184
I25586
tp4638
a(g327
I25593
tp4639
a(g877
I25607
tp4640
a(g2019
I25609
tp4641
a(g88
I25616
tp4642
a(g2573
I25621
tp4643
a(g2586
I25623
tp4644
a(g806
I25637
tp4645
a(Vprivegesprekken
p4646
I25651
tp4647
a(g375
I25654
tp4648
a(g136
I25677
tp4649
a(Vopmaken
p4650
I25681
tp4651
a(g36
I25683
tp4652
a(g423
I25684
tp4653
a(g2917
I25695
tp4654
a(Vuiterlijk
p4655
I25696
tp4656
a(Vtevoren
p4657
I25702
tp4658
a(g36
I25718
tp4659
a(Vovereen
p4660
I25733
tp4661
a(g1490
I25749
tp4662
a(Vbent
p4663
I25755
tp4664
a(g40
I25768
tp4665
a(Vgloed
p4666
I25770
tp4667
a(g1372
I25775
tp4668
a(g3528
I25777
tp4669
a(g50
I25783
tp4670
a(g88
I25784
tp4671
a(g1305
I25804
tp4672
a(g66
I25808
tp4673
a(g719
I25824
tp4674
a(g1942
I25825
tp4675
a(Vondervraging
p4676
I25831
tp4677
a(g3001
I25833
tp4678
a(Veraan
p4679
I25836
tp4680
a(g364
I25842
tp4681
a(g222
I25843
tp4682
a(Vvermoedde
p4683
I25849
tp4684
a(g2893
I25858
tp4685
a(g1942
I25861
tp4686
a(g4539
I25867
tp4687
a(g155
I25872
tp4688
a(g188
I25895
tp4689
a(g1816
I25896
tp4690
a(Vaflegden
p4691
I25897
tp4692
a(g949
I25909
tp4693
a(g2191
I25921
tp4694
a(g1942
I25929
tp4695
a(g280
I25955
tp4696
a(g2012
I25957
tp4697
a(g538
I25967
tp4698
a(Vzeventiende
p4699
I25992
tp4700
a(g542
I25997
tp4701
a(g2359
I26003
tp4702
a(Vdroeg
p4703
I26008
tp4704
a(g245
I26011
tp4705
a(g50
I26021
tp4706
a(Vbegraven
p4707
I26033
tp4708
a(Vgeliefde
p4709
I26048
tp4710
a(g157
I26058
tp4711
a(g1907
I26061
tp4712
a(Vvoorgelegd
p4713
I26069
tp4714
a(g2359
I26071
tp4715
a(Vbestudeerden
p4716
I26073
tp4717
a(g719
I26079
tp4718
a(Vbrengt
p4719
I26083
tp4720
a(g188
I26088
tp4721
a(g936
I26098
tp4722
a(g105
I26110
tp4723
a(g667
I26112
tp4724
a(g909
I26113
tp4725
a(g1125
I26122
tp4726
a(g922
I26128
tp4727
a(g970
I26134
tp4728
a(Vverkrijgen
p4729
I26158
tp4730
a(Vongelijk
p4731
I26159
tp4732
a(g40
I26196
tp4733
a(g2584
I26197
tp4734
a(g3618
I26205
tp4735
a(g105
I26209
tp4736
a(g2200
I26210
tp4737
a(g1463
I26212
tp4738
a(g1528
I26217
tp4739
a(g226
I26220
tp4740
a(g2971
I26224
tp4741
a(Vgedoe
p4742
I26230
tp4743
a(Vtijdverspillen
p4744
I26231
tp4745
a(Vminachtende
p4746
I26237
tp4747
a(VTerwijl
p4748
I26245
tp4749
a(g1515
I26247
tp4750
a(g1962
I26250
tp4751
a(g888
I26251
tp4752
a(g280
I26257
tp4753
a(Vrede
p4754
I26259
tp4755
a(VDank
p4756
I26260
tp4757
a(g955
I26271
tp4758
a(g56
I26273
tp4759
a(Vverlichting
p4760
I26277
tp4761
a(g276
I26282
tp4762
a(Vsensatie
p4763
I26284
tp4764
a(g3822
I26287
tp4765
a(g710
I26292
tp4766
a(g155
I26294
tp4767
a(g222
I26298
tp4768
a(g733
I26300
tp4769
a(Vbleke
p4770
I26304
tp4771
a(g226
I26323
tp4772
a(g265
I26329
tp4773
a(g2180
I26334
tp4774
a(Vinleiding
p4775
I26336
tp4776
a(g222
I26358
tp4777
a(Vzestiende
p4778
I26369
tp4779
a(g1942
I26373
tp4780
a(g960
I26382
tp4781
a(VAan
p4782
I26389
tp4783
a(g7
I26397
tp4784
a(g117
I26407
tp4785
a(Vbezwarende
p4786
I26413
tp4787
a(g939
I26419
tp4788
a(g56
I26426
tp4789
a(g56
I26433
tp4790
a(Vmeesterlijk
p4791
I26438
tp4792
a(Vvoorwendde
p4793
I26440
tp4794
a(g2605
I26444
tp4795
a(g2081
I26458
tp4796
a(g928
I26462
tp4797
a(g2257
I26466
tp4798
a(Vverkopen
p4799
I26468
tp4800
a(Vongelukkige
p4801
I26470
tp4802
a(Vstrenge
p4803
I26477
tp4804
a(g50
I26491
tp4805
a(g117
I26503
tp4806
a(g667
I26504
tp4807
a(g222
I26507
tp4808
a(g657
I26508
tp4809
a(Vhond
p4810
I26510
tp4811
a(g222
I26523
tp4812
a(g13
I26535
tp4813
a(g4456
I26546
tp4814
a(Vgebruikelijk
p4815
I26563
tp4816
a(g928
I26565
tp4817
a(Vregister
p4818
I26570
tp4819
a(g787
I26573
tp4820
a(g528
I26578
tp4821
a(Vgedaan
p4822
I26579
tp4823
a(g824
I26595
tp4824
a(g1363
I26608
tp4825
a(g4539
I26610
tp4826
a(g149
I26613
tp4827
a(g259
I26617
tp4828
a(g657
I26622
tp4829
a(g1872
I26625
tp4830
a(g3001
I26637
tp4831
a(g1061
I26647
tp4832
a(g155
I26661
tp4833
a(Vbehalve
p4834
I26663
tp4835
a(Vherdershond
p4836
I26665
tp4837
a(Vontkent
p4838
I26672
tp4839
a(g1426
I26686
tp4840
a(Voverhandigde
p4841
I26690
tp4842
a(g4818
I26693
tp4843
a(g144
I26712
tp4844
a(g4177
I26720
tp4845
a(g155
I26730
tp4846
a(Vjury
p4847
I26736
tp4848
a(g4841
I26737
tp4849
a(g188
I26741
tp4850
a(g1305
I26755
tp4851
a(Vonverstoorbaar
p4852
I26756
tp4853
a(Vwilt
p4854
I26771
tp4855
a(g719
I26773
tp4856
a(Vzestien
p4857
I26784
tp4858
a(g2019
I26795
tp4859
a(Vna
p4860
I26809
tp4861
a(g40
I26825
tp4862
a(g188
I26827
tp4863
a(Vwandeling
p4864
I26828
tp4865
a(Vernstiger
p4866
I26848
tp4867
a(Vtegengekomen
p4868
I26859
tp4869
a(g4864
I26862
tp4870
a(g210
I26864
tp4871
a(g902
I26873
tp4872
a(g1942
I26880
tp4873
a(g1463
I26898
tp4874
a(g2852
I26904
tp4875
a(g849
I26907
tp4876
a(g2438
I26913
tp4877
a(Vgearresteerd
p4878
I26931
tp4879
a(g423
I26934
tp4880
a(Vontkenningen
p4881
I26939
tp4882
a(Vovertuigd
p4883
I26946
tp4884
a(g1933
I26966
tp4885
a(g553
I26973
tp4886
a(Vverkeerd
p4887
I26983
tp4888
a(Vlieve
p4889
I26991
tp4890
a(g3849
I27001
tp4891
a(g1433
I27018
tp4892
a(g3448
I27023
tp4893
a(Vmoeite
p4894
I27032
tp4895
a(Vantwoorden
p4896
I27035
tp4897
a(g1433
I27039
tp4898
a(Vzweren
p4899
I27043
tp4900
a(g88
I27044
tp4901
a(g103
I27045
tp4902
a(Vwoordenwisseling
p4903
I27047
tp4904
a(g1433
I27055
tp4905
a(g217
I27068
tp4906
a(g1701
I27076
tp4907
a(g553
I27085
tp4908
a(VWas
p4909
I27087
tp4910
a(g1542
I27089
tp4911
a(g2584
I27111
tp4912
a(g155
I27112
tp4913
a(g1816
I27119
tp4914
a(Vgeven
p4915
I27121
tp4916
a(g966
I27128
tp4917
a(g257
I27140
tp4918
a(g849
I27146
tp4919
a(g1463
I27159
tp4920
a(g1885
I27161
tp4921
a(g263
I27183
tp4922
a(Vwaar
p4923
I27190
tp4924
a(g4212
I27192
tp4925
a(g210
I27194
tp4926
a(g263
I27200
tp4927
a(g1998
I27201
tp4928
a(Vknap
p4929
I27202
tp4930
a(g2566
I27203
tp4931
a(Vlaatste
p4932
I27208
tp4933
a(g286
I27209
tp4934
a(g3327
I27216
tp4935
a(Vintegendeel
p4936
I27219
tp4937
a(g421
I27223
tp4938
a(g88
I27237
tp4939
a(Vuzelf
p4940
I27238
tp4941
a(g2089
I27243
tp4942
a(g66
I27251
tp4943
a(g1998
I27254
tp4944
a(g2089
I27255
tp4945
a(g1644
I27264
tp4946
a(g1998
I27269
tp4947
a(g280
I27291
tp4948
a(g1251
I27293
tp4949
a(g222
I27303
tp4950
a(g1907
I27325
tp4951
a(g62
I27328
tp4952
a(g657
I27334
tp4953
a(g683
I27340
tp4954
a(g222
I27362
tp4955
a(VVragend
p4956
I27377
tp4957
a(g4212
I27383
tp4958
a(Voor
p4959
I27387
tp4960
a(VWeet
p4961
I27388
tp4962
a(g88
I27391
tp4963
a(g1366
I27392
tp4964
a(g66
I27395
tp4965
a(g210
I27399
tp4966
a(g1821
I27420
tp4967
a(g2117
I27421
tp4968
a(g1182
I27428
tp4969
a(Vzagen
p4970
I27431
tp4971
a(Vdienstdoende
p4972
I27443
tp4973
a(Vambtenaren
p4974
I27444
tp4975
a(Vversleten
p4976
I27446
tp4977
a(g404
I27450
tp4978
a(g391
I27452
tp4979
a(g3839
I27462
tp4980
a(g4473
I27479
tp4981
a(Vbedoeling
p4982
I27499
tp4983
a(g1389
I27512
tp4984
a(g2449
I27524
tp4985
a(g2019
I27539
tp4986
a(Vmonsieur
p4987
I27546
tp4988
a(g2127
I27568
tp4989
a(g40
I27573
tp4990
a(g280
I27591
tp4991
a(Vtijden
p4992
I27600
tp4993
a(g1349
I27618
tp4994
a(g949
I27622
tp4995
a(Vplezierige
p4996
I27648
tp4997
a(Vherinneringen
p4998
I27649
tp4999
a(Vbeiden
p5000
I27665
tp5001
a(Vvoorstelde
p5002
I27666
tp5003
a(Vhoofdinspecteur
p5004
I27670
tp5005
a(g2785
I27676
tp5006
a(Vvertrouwelijk
p5007
I27686
tp5008
a(g210
I27690
tp5009
a(g66
I27695
tp5010
a(g1305
I27708
tp5011
a(g1654
I27709
tp5012
a(g2244
I27715
tp5013
a(g748
I27734
tp5014
a(g56
I27740
tp5015
a(g1701
I27749
tp5016
a(Voplettend
p5017
I27751
tp5018
a(g667
I27755
tp5019
a(g56
I27756
tp5020
a(g86
I27764
tp5021
a(g1818
I27765
tp5022
a(g2514
I27778
tp5023
a(g528
I27779
tp5024
a(g2852
I27780
tp5025
a(g56
I27787
tp5026
a(g404
I27788
tp5027
a(Vtroeven
p5028
I27791
tp5029
a(Vsceptisch
p5030
I27810
tp5031
a(Vonderzoekend
p5032
I27814
tp5033
a(g1327
I27822
tp5034
a(g263
I27835
tp5035
a(Vsprake
p5036
I27860
tp5037
a(g88
I27888
tp5038
a(g105
I27904
tp5039
a(Vplaatse
p5040
I27911
tp5041
a(g719
I27915
tp5042
a(g1521
I27916
tp5043
a(Vtip
p5044
I27920
tp5045
a(g226
I27932
tp5046
a(g4150
I27942
tp5047
a(Vgetuigenverklaringen
p5048
I27945
tp5049
a(g263
I27954
tp5050
a(g528
I27968
tp5051
a(Vgezinspeeld
p5052
I27972
tp5053
a(Vtegendeel
p5054
I27975
tp5055
a(g40
I27978
tp5056
a(Vuitgelachen
p5057
I27983
tp5058
a(Vverbaasd
p5059
I27990
tp5060
a(Vlaste
p5061
I28003
tp5062
a(g2526
I28021
tp5063
a(g56
I28022
tp5064
a(g2605
I28034
tp5065
a(g1777
I28038
tp5066
a(g3388
I28042
tp5067
a(g188
I28045
tp5068
a(g849
I28051
tp5069
a(g528
I28059
tp5070
a(g155
I28073
tp5071
a(g4269
I28074
tp5072
a(g56
I28077
tp5073
a(g667
I28084
tp5074
a(g1880
I28102
tp5075
a(g290
I28105
tp5076
a(g1654
I28140
tp5077
a(g147
I28145
tp5078
a(g1349
I28157
tp5079
a(Varresteer
p5080
I28158
tp5081
a(Vinleggen
p5082
I28166
tp5083
a(g571
I28172
tp5084
a(Vveelbetekenend
p5085
I28179
tp5086
a(g1654
I28185
tp5087
a(Vongelovig
p5088
I28187
tp5089
a(g3759
I28205
tp5090
a(g113
I28209
tp5091
a(g1413
I28218
tp5092
a(Vdaarmee
p5093
I28219
tp5094
a(g259
I28223
tp5095
a(g66
I28231
tp5096
a(Vstaan
p5097
I28240
tp5098
a(g1184
I28241
tp5099
a(g796
I28248
tp5100
a(g391
I28265
tp5101
a(g188
I28269
tp5102
a(g1998
I28274
tp5103
a(g1542
I28278
tp5104
a(g571
I28292
tp5105
a(g249
I28295
tp5106
a(Vverborgene
p5107
I28304
tp5108
a(Vuitgerangeerde
p5109
I28317
tp5110
a(g4878
I28329
tp5111
a(Vgezworen
p5112
I28334
tp5113
a(g2968
I28337
tp5114
a(g2377
I28339
tp5115
a(g2117
I28344
tp5116
a(g949
I28356
tp5117
a(g155
I28374
tp5118
a(g1439
I28392
tp5119
a(g56
I28394
tp5120
a(g144
I28400
tp5121
a(g391
I28405
tp5122
a(g606
I28407
tp5123
a(g1798
I28413
tp5124
a(g280
I28416
tp5125
a(g4035
I28445
tp5126
a(g171
I28455
tp5127
a(g259
I28459
tp5128
a(Vwegliepen
p5129
I28480
tp5130
a(g62
I28481
tp5131
a(Vongelovige
p5132
I28485
tp5133
a(g2117
I28491
tp5134
a(Vuitbrengen
p5135
I28500
tp5136
a(g66
I28507
tp5137
a(g257
I28511
tp5138
a(g280
I28514
tp5139
a(g748
I28525
tp5140
a(g88
I28529
tp5141
a(g396
I28532
tp5142
a(g877
I28542
tp5143
a(g404
I28550
tp5144
a(Vidioterie
p5145
I28558
tp5146
a(g155
I28568
tp5147
a(g2849
I28576
tp5148
a(Vverdedigen
p5149
I28577
tp5150
a(g40
I28584
tp5151
a(Vmanieren
p5152
I28589
tp5153
a(Vaannemelijke
p5154
I28609
tp5155
a(Vbedenken
p5156
I28611
tp5157
a(Vovertuigender
p5158
I28613
tp5159
a(Vdaarnet
p5160
I28649
tp5161
a(g219
I28663
tp5162
a(g698
I28680
tp5163
a(g1504
I28691
tp5164
a(g50
I28694
tp5165
a(Vgingen
p5166
I28699
tp5167
a(Vafdoende
p5168
I28709
tp5169
a(g3327
I28712
tp5170
a(Vbewijsmateriaal
p5171
I28717
tp5172
a(Vonbevredigend
p5173
I28722
tp5174
a(Vonderzocht
p5175
I28725
tp5176
a(g97
I28746
tp5177
a(Vvaag
p5178
I28760
tp5179
a(g960
I28769
tp5180
a(Vaangetrokken
p5181
I28782
tp5182
a(g495
I28790
tp5183
a(g1389
I28791
tp5184
a(g1821
I28798
tp5185
a(g188
I28804
tp5186
a(g251
I28806
tp5187
a(g391
I28852
tp5188
a(g117
I28853
tp5189
a(Vverzonnen
p5190
I28867
tp5191
a(g4810
I28871
tp5192
a(g391
I28876
tp5193
a(g245
I28893
tp5194
a(g1323
I28896
tp5195
a(g928
I28904
tp5196
a(Vverdenking
p5197
I28916
tp5198
a(g1422
I28919
tp5199
a(g421
I28950
tp5200
a(Vverlangen
p5201
I28951
tp5202
a(Vplegen
p5203
I28967
tp5204
a(g789
I28970
tp5205
a(g56
I28973
tp5206
a(Vgehangen
p5207
I28975
tp5208
a(Vzoiets
p5209
I28977
tp5210
a(g1942
I28992
tp5211
a(g188
I28998
tp5212
a(Vraadsel
p5213
I28999
tp5214
a(g56
I29017
tp5215
a(g741
I29046
tp5216
a(Vkleren
p5217
I29055
tp5218
a(g251
I29064
tp5219
a(Vverte
p5220
I29070
tp5221
a(g1219
I29074
tp5222
a(Vherinnert
p5223
I29077
tp5224
a(Vveertien
p5225
I29080
tp5226
a(g212
I29088
tp5227
a(Vami
p5228
I29097
tp5229
a(Vherinner
p5230
I29098
tp5231
a(g155
I29108
tp5232
a(g46
I29112
tp5233
a(g1957
I29121
tp5234
a(g890
I29152
tp5235
a(g3346
I29154
tp5236
a(g1683
I29159
tp5237
a(Vongeduldig
p5238
I29165
tp5239
a(Vsnoerde
p5240
I29166
tp5241
a(g1245
I29171
tp5242
a(g249
I29173
tp5243
a(g553
I29175
tp5244
a(Veenvoudig
p5245
I29176
tp5246
a(g40
I29180
tp5247
a(g1942
I29182
tp5248
a(g690
I29187
tp5249
a(g3822
I29193
tp5250
a(g4514
I29201
tp5251
a(Vtoneelspeler
p5252
I29206
tp5253
a(Vgelijkende
p5254
I29213
tp5255
a(g2208
I29214
tp5256
a(g2849
I29225
tp5257
a(g5217
I29227
tp5258
a(g3862
I29241
tp5259
a(Vspringende
p5260
I29242
tp5261
a(g188
I29254
tp5262
a(g3506
I29261
tp5263
a(Vhoe
p5264
I29265
tp5265
a(g155
I29274
tp5266
a(g327
I29287
tp5267
a(g606
I29289
tp5268
a(g222
I29298
tp5269
a(g5197
I29304
tp5270
a(Vverzekeren
p5271
I29314
tp5272
a(g1206
I29315
tp5273
a(g222
I29329
tp5274
a(g1985
I29336
tp5275
a(Vverschijning
p5276
I29337
tp5277
a(g1810
I29349
tp5278
a(g56
I29353
tp5279
a(g1998
I29373
tp5280
a(Vwelsprekendheid
p5281
I29379
tp5282
a(Vzegt
p5283
I29387
tp5284
a(g56
I29388
tp5285
a(g2332
I29395
tp5286
a(g1849
I29396
tp5287
a(g553
I29402
tp5288
a(g40
I29416
tp5289
a(Vachter
p5290
I29442
tp5291
a(g462
I29462
tp5292
a(g50
I29468
tp5293
a(Vpeinsde
p5294
I29477
tp5295
a(Vgewonnen
p5296
I29483
tp5297
a(g3472
I29494
tp5298
a(g4883
I29495
tp5299
a(g327
I29499
tp5300
a(g606
I29501
tp5301
a(g4041
I29502
tp5302
a(g1816
I29503
tp5303
a(Vglimlachend
p5304
I29514
tp5305
a(g127
I29524
tp5306
a(g88
I29528
tp5307
a(Vverwijtend
p5308
I29542
tp5309
a(g188
I29545
tp5310
a(Vverontschuldigend
p5311
I29546
tp5312
a(g553
I29550
tp5313
a(g1946
I29552
tp5314
a(g892
I29554
tp5315
a(g1197
I29560
tp5316
a(g528
I29569
tp5317
a(g4878
I29575
tp5318
a(g474
I29577
tp5319
a(Vecht
p5320
I29585
tp5321
a(g1156
I29588
tp5322
a(g88
I29596
tp5323
a(g62
I29615
tp5324
a(Vaangekeken
p5325
I29616
tp5326
a(g188
I29625
tp5327
a(Vovergaand
p5328
I29628
tp5329
a(g4363
I29641
tp5330
a(g939
I29642
tp5331
a(Vgrotendeels
p5332
I29645
tp5333
a(g2780
I29654
tp5334
a(g1907
I29664
tp5335
a(g907
I29675
tp5336
a(g188
I29688
tp5337
a(Vzenuwachtige
p5338
I29689
tp5339
a(g50
I29694
tp5340
a(g88
I29696
tp5341
a(Vzn
p5342
I29697
tp5343
a(Vongeluk
p5344
I29700
tp5345
a(g1133
I29718
tp5346
a(Vsuggestie
p5347
I29739
tp5348
a(Vgestudeerd
p5349
I29754
tp5350
a(g528
I29765
tp5351
a(g40
I29768
tp5352
a(g423
I29779
tp5353
a(g88
I29815
tp5354
a(g1753
I29835
tp5355
a(g4518
I29840
tp5356
a(g962
I29853
tp5357
a(g4987
I29867
tp5358
a(g5347
I29876
tp5359
a(g251
I29884
tp5360
a(g2917
I29890
tp5361
a(g3949
I29896
tp5362
a(g1644
I29899
tp5363
a(g263
I29910
tp5364
a(g404
I29912
tp5365
a(g1479
I29924
tp5366
a(g50
I29925
tp5367
a(g458
I29926
tp5368
a(g955
I29940
tp5369
a(g3678
I29951
tp5370
a(g1998
I29956
tp5371
a(g290
I29964
tp5372
a(Vverlagen
p5373
I29994
tp5374
a(Vafluisteren
p5375
I29997
tp5376
a(g458
I30007
tp5377
a(g3237
I30008
tp5378
a(g113
I30010
tp5379
a(g465
I30022
tp5380
a(g188
I30027
tp5381
a(g391
I30038
tp5382
a(Vbegrepen
p5383
I30042
tp5384
a(Vhameren
p5385
I30049
tp5386
a(g263
I30052
tp5387
a(g188
I30054
tp5388
a(Vnadere
p5389
I30062
tp5390
a(g3327
I30067
tp5391
a(g149
I30073
tp5392
a(g2033
I30080
tp5393
a(Vverbaasde
p5394
I30085
tp5395
a(g4123
I30103
tp5396
a(g1439
I30108
tp5397
a(g3819
I30110
tp5398
a(g1816
I30111
tp5399
a(Vonze
p5400
I30130
tp5401
a(g828
I30131
tp5402
a(Vaanmerkingen
p5403
I30137
tp5404
a(g1305
I30146
tp5405
a(g1942
I30160
tp5406
a(g2852
I30164
tp5407
a(g40
I30165
tp5408
a(g4363
I30176
tp5409
a(Vspraken
p5410
I30213
tp5411
a(g1342
I30228
tp5412
a(g286
I30231
tp5413
a(Vbezorgden
p5414
I30232
tp5415
a(Veerlijke
p5416
I30253
tp5417
a(g171
I30258
tp5418
a(g222
I30262
tp5419
a(g3056
I30263
tp5420
a(g40
I30275
tp5421
a(Vscherpzinnigheid
p5422
I30279
tp5423
a(g251
I30282
tp5424
a(Vgelegenheden
p5425
I30283
tp5426
a(g88
I30300
tp5427
a(g360
I30311
tp5428
a(Veerlijk
p5429
I30313
tp5430
a(g960
I30330
tp5431
a(g5245
I30351
tp5432
a(Vliegen
p5433
I30353
tp5434
a(g88
I30360
tp5435
a(g50
I30379
tp5436
a(Vhoren
p5437
I30387
tp5438
a(g1372
I30391
tp5439
a(g56
I30413
tp5440
a(g1106
I30416
tp5441
a(Vwaarderen
p5442
I30417
tp5443
a(g1657
I30422
tp5444
a(g1349
I30429
tp5445
a(g1733
I30432
tp5446
a(g1279
I30438
tp5447
a(g391
I30448
tp5448
a(g1923
I30456
tp5449
a(Vdenkbeeldig
p5450
I30459
tp5451
a(g97
I30462
tp5452
a(Vvoegden
p5453
I30475
tp5454
a(Vonaangename
p5455
I30500
tp5456
a(g249
I30522
tp5457
a(g56
I30526
tp5458
a(g3487
I30535
tp5459
a(g62
I30546
tp5460
a(Voverleg
p5461
I30549
tp5462
a(g928
I30557
tp5463
a(g1052
I30559
tp5464
a(g1454
I30562
tp5465
a(g657
I30564
tp5466
a(g1962
I30574
tp5467
a(g3979
I30577
tp5468
a(g421
I30590
tp5469
a(g553
I30592
tp5470
a(Vgegronde
p5471
I30598
tp5472
a(Vredenen
p5473
I30599
tp5474
a(g219
I30603
tp5475
a(Viemand
p5476
I30609
tp5477
a(g249
I30611
tp5478
a(Vconcrete
p5479
I30612
tp5480
a(g38
I30623
tp5481
a(g1452
I30637
tp5482
a(Vzette
p5483
I30640
tp5484
a(g327
I30642
tp5485
a(g928
I30643
tp5486
a(g334
I30644
tp5487
a(Vrealiseerden
p5488
I30664
tp5489
a(g3839
I30672
tp5490
a(Vdagbladen
p5491
I30690
tp5492
a(Vschreeuwende
p5493
I30698
tp5494
a(g97
I30710
tp5495
a(Vfotos
p5496
I30713
tp5497
a(Vdingen
p5498
I30727
tp5499
a(Voverkwamen
p5500
I30739
tp5501
a(g928
I30787
tp5502
a(g56
I30793
tp5503
a(Vofficiele
p5504
I30799
tp5505
a(g56
I30813
tp5506
a(g40
I30826
tp5507
a(g737
I30827
tp5508
a(Vallen
p5509
I30829
tp5510
a(g188
I30835
tp5511
a(g210
I30838
tp5512
a(Vbetreft
p5513
I30840
tp5514
a(g3865
I30846
tp5515
a(g1184
I30849
tp5516
a(g88
I30852
tp5517
a(Vbeetje
p5518
I30858
tp5519
a(g50
I30859
tp5520
a(g62
I30861
tp5521
a(g56
I30864
tp5522
a(Vrechtstreeks
p5523
I30876
tp5524
a(Vrichtend
p5525
I30881
tp5526
a(g2221
I30886
tp5527
a(g1670
I30902
tp5528
a(g962
I30939
tp5529
a(g1473
I30940
tp5530
a(Vverkeert
p5531
I30946
tp5532
a(g1654
I30949
tp5533
a(Vgebruikt
p5534
I30971
tp5535
a(g1197
I30981
tp5536
a(g796
I30988
tp5537
a(g667
I30993
tp5538
a(Vweloverwogen
p5539
I30995
tp5540
a(VIedereen
p5541
I31006
tp5542
a(g286
I31017
tp5543
a(g646
I31022
tp5544
a(g1061
I31032
tp5545
a(g2359
I31038
tp5546
a(g3634
I31044
tp5547
a(g3237
I31049
tp5548
a(g280
I31057
tp5549
a(g1942
I31063
tp5550
a(g188
I31068
tp5551
a(Vstoel
p5552
I31081
tp5553
a(Vhanden
p5554
I31089
tp5555
a(g226
I31098
tp5556
a(Vdreigend
p5557
I31105
tp5558
a(g4894
I31107
tp5559
a(g1968
I31116
tp5560
a(Vonmenselijk
p5561
I31131
tp5562
a(Vbeschuldigen
p5563
I31138
tp5564
a(g245
I31149
tp5565
a(g188
I31150
tp5566
a(g646
I31165
tp5567
a(g178
I31176
tp5568
a(g443
I31179
tp5569
a(g66
I31186
tp5570
a(g3001
I31201
tp5571
a(g657
I31203
tp5572
a(g2332
I31204
tp5573
a(g1849
I31205
tp5574
a(g657
I31209
tp5575
a(g1849
I31219
tp5576
a(g155
I31220
tp5577
a(Vbegeleidde
p5578
I31223
tp5579
a(g50
I31227
tp5580
a(g2386
I31233
tp5581
a(g1433
I31242
tp5582
a(g1439
I31253
tp5583
a(g50
I31276
tp5584
a(g806
I31279
tp5585
a(g928
I31291
tp5586
a(g544
I31294
tp5587
a(g3787
I31303
tp5588
a(g1349
I31314
tp5589
a(g263
I31316
tp5590
a(g188
I31341
tp5591
a(g1685
I31356
tp5592
a(Vorde
p5593
I31364
tp5594
a(g66
I31375
tp5595
a(g1292
I31376
tp5596
a(Vaardig
p5597
I31383
tp5598
a(Vnesten
p5599
I31386
tp5600
a(g4878
I31392
tp5601
a(g117
I31394
tp5602
a(Vtijdens
p5603
I31411
tp5604
a(g4363
I31413
tp5605
a(g2127
I31414
tp5606
a(g3233
I31420
tp5607
a(Vlasterlijk
p5608
I31432
tp5609
a(Vvolkomen
p5610
I31434
tp5611
a(Voverslaande
p5612
I31440
tp5613
a(g1245
I31442
tp5614
a(Vvermijden
p5615
I31451
tp5616
a(g939
I31459
tp5617
a(g1885
I31468
tp5618
a(g4707
I31474
tp5619
a(g3991
I31483
tp5620
a(Vwereld
p5621
I31491
tp5622
a(Vlasterpraat
p5623
I31507
tp5624
a(Vriskeren
p5625
I31508
tp5626
a(g4878
I31510
tp5627
a(g40
I31515
tp5628
a(g4883
I31518
tp5629
a(g4878
I31541
tp5630
a(g966
I31550
tp5631
a(g50
I31553
tp5632
a(g40
I31557
tp5633
a(g50
I31566
tp5634
a(Vbelasterd
p5635
I31573
tp5636
a(Vonheilspellende
p5637
I31579
tp5638
a(g3528
I31580
tp5639
a(g2438
I31586
tp5640
a(g1454
I31610
tp5641
a(g2205
I31611
tp5642
a(g928
I31626
tp5643
a(g791
I31674
tp5644
a(Vkom
p5645
I31677
tp5646
a(g2120
I31704
tp5647
a(Vafvragend
p5648
I31705
tp5649
a(g259
I31730
tp5650
a(Vuitgezonderd
p5651
I31738
tp5652
a(g3998
I31743
tp5653
a(g5135
I31758
tp5654
a(g66
I31766
tp5655
a(Vbleef
p5656
I31767
tp5657
a(g300
I31770
tp5658
a(Vniemand
p5659
I31778
tp5660
a(g3420
I31780
tp5661
a(g40
I31796
tp5662
a(g105
I31798
tp5663
a(Vrots
p5664
I31800
tp5665
a(g806
I31803
tp5666
a(g4909
I31809
tp5667
a(g364
I31811
tp5668
a(Vteleurgesteld
p5669
I31813
tp5670
a(g42
I31818
tp5671
a(g1946
I31831
tp5672
a(g5228
I31832
tp5673
a(g263
I31835
tp5674
a(g391
I31843
tp5675
a(g4276
I31845
tp5676
a(g66
I31846
tp5677
a(g2584
I31864
tp5678
a(g1465
I31870
tp5679
a(g1463
I31872
tp5680
a(Vkinderlijk
p5681
I31875
tp5682
a(Vterneergeslagen
p5683
I31878
tp5684
a(Vtroosten
p5685
I31886
tp5686
a(g391
I31891
tp5687
a(g796
I31899
tp5688
a(g733
I31900
tp5689
a(g5271
I31908
tp5690
a(g188
I31915
tp5691
a(g1554
I31929
tp5692
a(g970
I31939
tp5693
a(g892
I31942
tp5694
a(g2414
I31959
tp5695
a(g66
I31968
tp5696
a(g2235
I31979
tp5697
a(g36
I31980
tp5698
a(g251
I31995
tp5699
a(g748
I31996
tp5700
a(g538
I32006
tp5701
a(g2705
I32020
tp5702
a(Vverkeerde
p5703
I32031
tp5704
a(g1668
I32045
tp5705
a(g251
I32049
tp5706
a(g3426
I32070
tp5707
a(g226
I32085
tp5708
a(g2127
I32099
tp5709
a(g117
I32109
tp5710
a(g113
I32114
tp5711
a(g1402
I32117
tp5712
a(g88
I32123
tp5713
a(g249
I32126
tp5714
a(g2951
I32127
tp5715
a(g155
I32133
tp5716
a(g1439
I32136
tp5717
a(Vverandert
p5718
I32165
tp5719
a(g3003
I32174
tp5720
a(g280
I32188
tp5721
a(Vmompelend
p5722
I32190
tp5723
a(g5718
I32193
tp5724
a(g56
I32199
tp5725
a(g56
I32206
tp5726
a(g571
I32209
tp5727
a(g1957
I32229
tp5728
a(g2852
I32248
tp5729
a(g815
I32258
tp5730
a(g3991
I32259
tp5731
a(g1168
I32269
tp5732
a(Vgelaten
p5733
I32280
tp5734
a(g1942
I32287
tp5735
a(g2915
I32292
tp5736
a(g147
I32294
tp5737
a(g5332
I32297
tp5738
a(g698
I32319
tp5739
a(g553
I32344
tp5740
a(Vgefingeerde
p5741
I32350
tp5742
a(g2646
I32353
tp5743
a(g66
I32359
tp5744
a(g928
I32363
tp5745
a(Vuitgegeven
p5746
I32372
tp5747
a(g251
I32376
tp5748
a(g2166
I32378
tp5749
a(Vtennissen
p5750
I32381
tp5751
a(g2687
I32383
tp5752
a(g1251
I32395
tp5753
a(Vneergezet
p5754
I32397
tp5755
a(g4363
I32400
tp5756
a(g5659
I32402
tp5757
a(Vgeschonken
p5758
I32407
tp5759
a(g769
I32414
tp5760
a(Vbetekenis
p5761
I32415
tp5762
a(g2150
I32416
tp5763
a(Vmoeten
p5764
I32418
tp5765
a(g1349
I32420
tp5766
a(g125
I32424
tp5767
a(g391
I32428
tp5768
a(g1251
I32437
tp5769
a(g1816
I32446
tp5770
a(g278
I32450
tp5771
a(g88
I32459
tp5772
a(g2061
I32469
tp5773
a(g2423
I32473
tp5774
a(g66
I32479
tp5775
a(g5197
I32489
tp5776
a(g155
I32491
tp5777
a(g222
I32502
tp5778
a(Vgedwongen
p5779
I32504
tp5780
a(Vkaarten
p5781
I32507
tp5782
a(g4512
I32511
tp5783
a(g249
I32526
tp5784
a(g155
I32530
tp5785
a(g2646
I32534
tp5786
a(g255
I32543
tp5787
a(Vdraaide
p5788
I32544
tp5789
a(Vkoester
p5790
I32554
tp5791
a(g5197
I32557
tp5792
a(g105
I32586
tp5793
a(Vverworpen
p5794
I32588
tp5795
a(g771
I32595
tp5796
a(Vrondspoken
p5797
I32596
tp5798
a(g5197
I32601
tp5799
a(g3167
I32602
tp5800
a(g1146
I32606
tp5801
a(g849
I32609
tp5802
a(g4500
I32615
tp5803
a(g796
I32621
tp5804
a(Vveronachtzamen
p5805
I32632
tp5806
a(g1542
I32637
tp5807
a(Vverdenk
p5808
I32644
tp5809
a(g3472
I32647
tp5810
a(g553
I32665
tp5811
a(g503
I32674
tp5812
a(Vstuntelig
p5813
I32677
tp5814
a(g3327
I32678
tp5815
a(g88
I32684
tp5816
a(g458
I32686
tp5817
a(g1336
I32689
tp5818
a(g3118
I32690
tp5819
a(g1542
I32703
tp5820
a(g171
I32705
tp5821
a(g284
I32708
tp5822
a(g46
I32749
tp5823
a(g40
I32752
tp5824
a(g4822
I32753
tp5825
a(g222
I32755
tp5826
a(Vziekentransport
p5827
I32779
tp5828
a(g651
I32782
tp5829
a(g3544
I32784
tp5830
a(g1872
I32790
tp5831
a(Vbuitengewone
p5832
I32806
tp5833
a(g2433
I32808
tp5834
a(Vverdenken
p5835
I32814
tp5836
a(g3610
I32822
tp5837
a(g249
I32823
tp5838
a(g4111
I32843
tp5839
a(g2356
I32846
tp5840
a(g2356
I32852
tp5841
a(g222
I32863
tp5842
a(g465
I32865
tp5843
a(Vgebeten
p5844
I32878
tp5845
a(g1424
I32888
tp5846
a(g1372
I32896
tp5847
a(g5703
I32916
tp5848
a(Vdegeneratie
p5849
I32922
tp5850
a(g171
I32927
tp5851
a(Vgezonde
p5852
I32941
tp5853
a(g3603
I32942
tp5854
a(g2433
I32948
tp5855
a(g7
I32950
tp5856
a(g4982
I32961
tp5857
a(g155
I32970
tp5858
a(g1439
I32973
tp5859
a(g769
I32974
tp5860
a(g4395
I32980
tp5861
a(g1120
I32997
tp5862
a(g423
I33008
tp5863
a(Vverstandigste
p5864
I33014
tp5865
a(g5835
I33018
tp5866
a(g2235
I33021
tp5867
a(Vredeneren
p5868
I33023
tp5869
a(g4883
I33025
tp5870
a(g88
I33031
tp5871
a(g2646
I33035
tp5872
a(Vwelke
p5873
I33036
tp5874
a(Vargumenten
p5875
I33037
tp5876
a(Vpleiten
p5877
I33038
tp5878
a(Vertegen
p5879
I33039
tp5880
a(Vredeneert
p5881
I33064
tp5882
a(g97
I33076
tp5883
a(g1061
I33081
tp5884
a(Vevengoed
p5885
I33085
tp5886
a(g5764
I33095
tp5887
a(g4033
I33104
tp5888
a(Vligt
p5889
I33113
tp5890
a(g5703
I33126
tp5891
a(g1874
I33133
tp5892
a(g251
I33138
tp5893
a(g675
I33150
tp5894
a(g117
I33152
tp5895
a(g1197
I33156
tp5896
a(Vgedachtengang
p5897
I33160
tp5898
a(Vonoverkomelijk
p5899
I33165
tp5900
a(Vmoordenares
p5901
I33171
tp5902
a(g263
I33177
tp5903
a(g171
I33186
tp5904
a(g2131
I33187
tp5905
a(g188
I33196
tp5906
a(g2356
I33204
tp5907
a(g1208
I33212
tp5908
a(g1156
I33224
tp5909
a(g66
I33234
tp5910
a(g50
I33240
tp5911
a(Vbekleedde
p5912
I33250
tp5913
a(Vpositie
p5914
I33253
tp5915
a(g503
I33266
tp5916
a(g90
I33275
tp5917
a(g2117
I33290
tp5918
a(g66
I33292
tp5919
a(g675
I33299
tp5920
a(g2356
I33301
tp5921
a(g892
I33305
tp5922
a(g222
I33309
tp5923
a(g2584
I33331
tp5924
a(g40
I33339
tp5925
a(g1422
I33349
tp5926
a(g263
I33352
tp5927
a(g134
I33355
tp5928
a(g5835
I33363
tp5929
a(g3237
I33370
tp5930
a(g4363
I33373
tp5931
a(g737
I33384
tp5932
a(g3237
I33390
tp5933
a(g88
I33394
tp5934
a(g40
I33398
tp5935
a(g458
I33399
tp5936
a(Vnoemde
p5937
I33403
tp5938
a(g5197
I33408
tp5939
a(Vherstelde
p5940
I33421
tp5941
a(Veerstvolgende
p5942
I33440
tp5943
a(g2623
I33475
tp5944
a(g40
I33499
tp5945
a(g50
I33502
tp5946
a(g2915
I33510
tp5947
a(g147
I33511
tp5948
a(g796
I33536
tp5949
a(g1106
I33547
tp5950
a(g50
I33561
tp5951
a(g56
I33577
tp5952
a(g40
I33587
tp5953
a(Vgeanalyseerd
p5954
I33605
tp5955
a(g1814
I33635
tp5956
a(g66
I33655
tp5957
a(g1422
I33661
tp5958
a(g1814
I33662
tp5959
a(g360
I33667
tp5960
a(g36
I33671
tp5961
a(g960
I33682
tp5962
a(g3327
I33683
tp5963
a(g171
I33685
tp5964
a(g1349
I33688
tp5965
a(Vgedrag
p5966
I33691
tp5967
a(Vintrigeerde
p5968
I33697
tp5969
a(g4310
I33709
tp5970
a(g2359
I33711
tp5971
a(g62
I33719
tp5972
a(g2150
I33720
tp5973
a(Vtriomfantelijk
p5974
I33735
tp5975
a(g710
I33742
tp5976
a(g3080
I33754
tp5977
a(g1088
I33763
tp5978
a(g56
I33777
tp5979
a(g3327
I33778
tp5980
a(g263
I33784
tp5981
a(g5156
I33789
tp5982
a(g1197
I33794
tp5983
a(g222
I33799
tp5984
a(g56
I33808
tp5985
a(g719
I33826
tp5986
a(g2538
I33829
tp5987
a(g5383
I33836
tp5988
a(Vvoorbarige
p5989
I33868
tp5990
a(Vtrokken
p5991
I33870
tp5992
a(g3550
I33876
tp5993
a(g4731
I33879
tp5994
a(Vberoerde
p5995
I33886
tp5996
a(g149
I33891
tp5997
a(Vzouden
p5998
I33893
tp5999
a(g892
I33901
tp6000
a(g404
I33902
tp6001
a(g3542
I33903
tp6002
a(g105
I33910
tp6003
a(g4657
I33911
tp6004
a(Vvervelend
p6005
I33916
tp6006
a(g1755
I33917
tp6007
a(g2456
I33924
tp6008
a(Vtact
p6009
I33926
tp6010
a(g657
I33928
tp6011
a(g4506
I33943
tp6012
a(Vnagelaten
p6013
I33955
tp6014
a(Vonverdraaglijke
p6015
I33957
tp6016
a(g36
I33979
tp6017
a(Vstand
p6018
I33982
tp6019
a(g226
I34001
tp6020
a(Vzitten
p6021
I34025
tp6022
a(Vgeld
p6023
I34052
tp6024
a(Valgemene
p6025
I34057
tp6026
a(Vopgewekter
p6027
I34071
tp6028
a(g1707
I34078
tp6029
a(g251
I34080
tp6030
a(Vallemaal
p6031
I34094
tp6032
a(g1052
I34096
tp6033
a(g719
I34121
tp6034
a(g968
I34127
tp6035
a(Vgestaan
p6036
I34128
tp6037
a(g1935
I34144
tp6038
a(g580
I34146
tp6039
a(Vaanwijzingen
p6040
I34151
tp6041
a(g966
I34157
tp6042
a(g485
I34160
tp6043
a(Vstortten
p6044
I34170
tp6045
a(g966
I34180
tp6046
a(g1106
I34191
tp6047
a(g6005
I34192
tp6048
a(Vvoortdurend
p6049
I34198
tp6050
a(Vtoegang
p6051
I34206
tp6052
a(Vgeweigerd
p6053
I34208
tp6054
a(Vechter
p6055
I34211
tp6056
a(Vrondhangen
p6057
I34212
tp6058
a(g78
I34219
tp6059
a(Vleefden
p6060
I34238
tp6061
a(g1744
I34240
tp6062
a(Vonderzochten
p6063
I34254
tp6064
a(g1439
I34279
tp6065
a(g3849
I34282
tp6066
a(Vcategorie
p6067
I34286
tp6068
a(Vonopgeloste
p6069
I34287
tp6070
a(Vmisdaden
p6071
I34288
tp6072
a(Vgerangschikt
p6073
I34289
tp6074
a(g2785
I34299
tp6075
a(g1439
I34300
tp6076
a(g1685
I34305
tp6077
a(g2438
I34315
tp6078
a(g404
I34323
tp6079
a(g787
I34326
tp6080
a(g2753
I34327
tp6081
a(g2566
I34353
tp6082
a(g3
I34355
tp6083
a(Vverkleedkist
p6084
I34384
tp6085
a(Vstaat
p6086
I34387
tp6087
a(g188
I34401
tp6088
a(Vbal
p6089
I34403
tp6090
a(g796
I34408
tp6091
a(Vdacht
p6092
I34413
tp6093
a(g204
I34422
tp6094
a(g960
I34425
tp6095
a(g6021
I34426
tp6096
a(g391
I34431
tp6097
a(VBelgische
p6098
I34433
tp6099
a(g1942
I34436
tp6100
a(g651
I34446
tp6101
a(g1245
I34454
tp6102
a(Vlopen
p6103
I34467
tp6104
a(g3018
I34487
tp6105
a(Vdappere
p6106
I34494
tp6107
a(VBelgen
p6108
I34495
tp6109
a(Vbuitenlanders
p6110
I34500
tp6111
a(g5416
I34523
tp6112
a(g40
I34529
tp6113
a(g1861
I34558
tp6114
a(g40
I34567
tp6115
a(g40
I34580
tp6116
a(g2767
I34581
tp6117
a(g3528
I34597
tp6118
a(Vkist
p6119
I34601
tp6120
a(g2235
I34616
tp6121
a(g3886
I34620
tp6122
a(g806
I34625
tp6123
a(g1251
I34630
tp6124
a(Vbeslagen
p6125
I34650
tp6126
a(g192
I34657
tp6127
a(Vkledingstukken
p6128
I34658
tp6129
a(g3369
I34662
tp6130
a(g837
I34667
tp6131
a(g669
I34683
tp6132
a(VHu
p6133
I34690
tp6134
a(g796
I34692
tp6135
a(g2345
I34704
tp6136
a(g155
I34721
tp6137
a(g117
I34733
tp6138
a(g5788
I34734
tp6139
a(g1694
I34759
tp6140
a(g36
I34772
tp6141
a(g202
I34773
tp6142
a(g1279
I34779
tp6143
a(Vgoedemorgen
p6144
I34801
tp6145
a(Vdoorgekeken
p6146
I34811
tp6147
a(g66
I34813
tp6148
a(g423
I34825
tp6149
a(VTegenwoordig
p6150
I34837
tp6151
a(g210
I34856
tp6152
a(g144
I34869
tp6153
a(g337
I34873
tp6154
a(g56
I34875
tp6155
a(g2386
I34876
tp6156
a(g7
I34880
tp6157
a(Voosterse
p6158
I34893
tp6159
a(g117
I34897
tp6160
a(g62
I34898
tp6161
a(Vonderdanig
p6162
I34913
tp6163
a(Vgeslepen
p6164
I34919
tp6165
a(g40
I34927
tp6166
a(g364
I34930
tp6167
a(Vsoortement
p6168
I34946
tp6169
a(g2462
I34948
tp6170
a(g844
I34954
tp6171
a(g105
I34967
tp6172
a(Vveranderen
p6173
I34974
tp6174
a(Vavonden
p6175
I34985
tp6176
a(g651
I34990
tp6177
a(g222
I35012
tp6178
a(g435
I35028
tp6179
a(Vstrengen
p6180
I35034
tp6181
a(Vwol
p6182
I35036
tp6183
a(Vgeleend
p6184
I35039
tp6185
a(g528
I35062
tp6186
a(g188
I35063
tp6187
a(g127
I35070
tp6188
a(g188
I35078
tp6189
a(Vgebruiken
p6190
I35091
tp6191
a(g105
I35100
tp6192
a(g259
I35104
tp6193
a(g902
I35105
tp6194
a(g1829
I35109
tp6195
a(g327
I35110
tp6196
a(g88
I35118
tp6197
a(g3596
I35120
tp6198
a(g50
I35128
tp6199
a(g1683
I35134
tp6200
a(g1251
I35138
tp6201
a(g4212
I35148
tp6202
a(g418
I35151
tp6203
a(VZag
p6204
I35155
tp6205
a(g1133
I35161
tp6206
a(g280
I35165
tp6207
a(Vprecies
p6208
I35166
tp6209
a(Vgeknipt
p6210
I35169
tp6211
a(g251
I35171
tp6212
a(g2566
I35180
tp6213
a(Vwonderlijk
p6214
I35185
tp6215
a(g2514
I35192
tp6216
a(g6190
I35205
tp6217
a(g280
I35213
tp6218
a(g56
I35217
tp6219
a(g196
I35219
tp6220
a(Vintelligent
p6221
I35233
tp6222
a(Vintelligenter
p6223
I35237
tp6224
a(g849
I35241
tp6225
a(g6221
I35242
tp6226
a(g130
I35249
tp6227
a(g1554
I35253
tp6228
a(g528
I35254
tp6229
a(g6221
I35257
tp6230
a(g5764
I35273
tp6231
a(g2235
I35279
tp6232
a(g1389
I35284
tp6233
a(g787
I35298
tp6234
a(g1197
I35299
tp6235
a(Vaanstaarde
p6236
I35305
tp6237
a(Vonschatbare
p6238
I35308
tp6239
a(Vdiensten
p6240
I35309
tp6241
a(g222
I35313
tp6242
a(Vaangenaam
p6243
I35315
tp6244
a(g710
I35320
tp6245
a(g1683
I35337
tp6246
a(g421
I35341
tp6247
a(g1402
I35343
tp6248
a(g3448
I35352
tp6249
a(g2698
I35359
tp6250
a(g4982
I35371
tp6251
a(g474
I35395
tp6252
a(g40
I35410
tp6253
a(Vbrave
p6254
I35412
tp6255
a(g553
I35417
tp6256
a(g178
I35431
tp6257
a(Vgezuiverd
p6258
I35452
tp6259
a(g625
I35458
tp6260
a(g88
I35462
tp6261
a(Vnauwelijks
p6262
I35463
tp6263
a(Vgenoemd
p6264
I35465
tp6265
a(g1685
I35481
tp6266
a(g5238
I35499
tp6267
a(g1616
I35525
tp6268
a(g712
I35547
tp6269
a(g1757
I35561
tp6270
a(Vbeantwoorden
p6271
I35568
tp6272
a(Vleugens
p6273
I35572
tp6274
a(g510
I35592
tp6275
a(Vverklaringen
p6276
I35603
tp6277
a(Vbeinvloed
p6278
I35611
tp6279
a(g88
I35633
tp6280
a(g56
I35634
tp6281
a(g3623
I35635
tp6282
a(g40
I35638
tp6283
a(g210
I35645
tp6284
a(g651
I35652
tp6285
a(g25
I35656
tp6286
a(g2468
I35668
tp6287
a(g2852
I35693
tp6288
a(g3472
I35695
tp6289
a(g2849
I35705
tp6290
a(g280
I35711
tp6291
a(g3500
I35713
tp6292
a(g280
I35748
tp6293
a(g1465
I35750
tp6294
a(g3606
I35752
tp6295
a(g7
I35760
tp6296
a(g5223
I35775
tp6297
a(VHerinnert
p6298
I35810
tp6299
a(g105
I35819
tp6300
a(g727
I35830
tp6301
a(g249
I35849
tp6302
a(g88
I35858
tp6303
a(g2334
I35868
tp6304
a(g171
I35880
tp6305
a(Vschenken
p6306
I35882
tp6307
a(g667
I35890
tp6308
a(g2433
I35899
tp6309
a(g1054
I35902
tp6310
a(g219
I35907
tp6311
a(Vbeging
p6312
I35912
tp6313
a(g280
I35916
tp6314
a(g144
I35936
tp6315
a(g2399
I35950
tp6316
a(Vbevestigend
p6317
I35951
tp6318
a(g1942
I35956
tp6319
a(g849
I35959
tp6320
a(g1288
I35967
tp6321
a(g219
I35969
tp6322
a(g219
I35974
tp6323
a(g4512
I35984
tp6324
a(Vintuitie
p6325
I35986
tp6326
a(g769
I35990
tp6327
a(Vafwerende
p6328
I36002
tp6329
a(g4923
I36014
tp6330
a(g97
I36019
tp6331
a(g741
I36026
tp6332
a(g1424
I36029
tp6333
a(g737
I36033
tp6334
a(g771
I36043
tp6335
a(g2056
I36048
tp6336
a(g1654
I36069
tp6337
a(g208
I36073
tp6338
a(g1942
I36087
tp6339
a(g391
I36096
tp6340
a(g66
I36098
tp6341
a(g619
I36108
tp6342
a(g364
I36111
tp6343
a(g3448
I36121
tp6344
a(g66
I36154
tp6345
a(Vuitsteken
p6346
I36160
tp6347
a(Vniets
p6348
I36173
tp6349
a(Vbondgenote
p6350
I36179
tp6351
a(Vdatgene
p6352
I36188
tp6353
a(g40
I36213
tp6354
a(Vhoede
p6355
I36220
tp6356
a(g226
I36227
tp6357
a(g5703
I36229
tp6358
a(g2852
I36233
tp6359
a(g1166
I36234
tp6360
a(g226
I36236
tp6361
a(g226
I36257
tp6362
a(g66
I36270
tp6363
a(g249
I36281
tp6364
a(g1796
I36286
tp6365
a(g263
I36309
tp6366
a(g1279
I36310
tp6367
a(Vwaardigheid
p6368
I36312
tp6369
a(g846
I36314
tp6370
a(g327
I36318
tp6371
a(g787
I36322
tp6372
a(g280
I36338
tp6373
a(g6350
I36373
tp6374
a(Vterwijl
p6375
I36376
tp6376
a(g3603
I36385
tp6377
a(g6325
I36393
tp6378
a(g263
I36394
tp6379
a(g2115
I36396
tp6380
a(g171
I36403
tp6381
a(Vnegeren
p6382
I36407
tp6383
a(Vschijnen
p6384
I36415
tp6385
a(g888
I36419
tp6386
a(g1379
I36448
tp6387
a(Vinlichten
p6388
I36454
tp6389
a(g1389
I36459
tp6390
a(g5017
I36460
tp6391
a(Vvastbesloten
p6392
I36469
tp6393
a(g553
I36479
tp6394
a(g263
I36481
tp6395
a(g327
I36483
tp6396
a(g892
I36493
tp6397
a(g66
I36501
tp6398
a(g1952
I36504
tp6399
a(g50
I36511
tp6400
a(g1952
I36513
tp6401
a(g134
I36522
tp6402
a(g2208
I36524
tp6403
a(g2324
I36535
tp6404
a(g435
I36543
tp6405
a(g1654
I36544
tp6406
a(g171
I36559
tp6407
a(g222
I36562
tp6408
a(g40
I36572
tp6409
a(Vzake
p6410
I36590
tp6411
a(Vdoende
p6412
I36591
tp6413
a(Vopmerking
p6414
I36592
tp6415
a(g846
I36608
tp6416
a(g105
I36612
tp6417
a(Vinteressante
p6418
I36615
tp6419
a(g1957
I36617
tp6420
a(Vontdekkingen
p6421
I36618
tp6422
a(Vgebeuren
p6423
I36624
tp6424
a(Vuiteindelijke
p6425
I36635
tp6426
a(g251
I36642
tp6427
a(Vmomenten
p6428
I36643
tp6429
a(g66
I36658
tp6430
a(g2642
I36678
tp6431
a(Veigenmachtig
p6432
I36687
tp6433
a(g1215
I36688
tp6434
a(g109
I36705
tp6435
a(g404
I36707
tp6436
a(VDit
p6437
I36710
tp6438
a(g712
I36721
tp6439
a(g4982
I36734
tp6440
a(g40
I36746
tp6441
a(g5761
I36764
tp6442
a(g66
I36774
tp6443
a(g188
I36790
tp6444
a(g40
I36803
tp6445
a(g155
I36845
tp6446
a(g2221
I36847
tp6447
a(g775
I36849
tp6448
a(g796
I36857
tp6449
a(g40
I36858
tp6450
a(g249
I36859
tp6451
a(g6437
I36862
tp6452
a(g2623
I36877
tp6453
a(g56
I36885
tp6454
a(Vstaarde
p6455
I36888
tp6456
a(Voprechte
p6457
I36892
tp6458
a(g391
I36894
tp6459
a(VGeen
p6460
I36899
tp6461
a(g50
I36922
tp6462
a(Vinformeren
p6463
I36925
tp6464
a(g675
I36931
tp6465
a(g675
I36943
tp6466
a(g251
I36951
tp6467
a(Vmist
p6468
I36976
tp6469
a(g2994
I36983
tp6470
a(Vporselein
p6471
I36984
tp6472
a(g1439
I36994
tp6473
a(Vzelfs
p6474
I36995
tp6475
a(g796
I37001
tp6476
a(g88
I37011
tp6477
a(g56
I37017
tp6478
a(g675
I37019
tp6479
a(g66
I37021
tp6480
a(Vlaars
p6481
I37025
tp6482
a(g66
I37028
tp6483
a(g155
I37031
tp6484
a(Vterugriep
p6485
I37039
tp6486
a(g404
I37050
tp6487
a(g56
I37072
tp6488
a(g3512
I37078
tp6489
a(g1332
I37093
tp6490
a(g849
I37096
tp6491
a(g226
I37127
tp6492
a(Vzwijgende
p6493
I37128
tp6494
a(Vovereenkomst
p6495
I37129
tp6496
a(Vwoord
p6497
I37134
tp6498
a(g5410
I37140
tp6499
a(Vneutrale
p6500
I37146
tp6501
a(Vonderwerpen
p6502
I37147
tp6503
a(g2810
I37154
tp6504
a(g3073
I37162
tp6505
a(g178
I37163
tp6506
a(Vonprettige
p6507
I37176
tp6508
a(g4998
I37177
tp6509
a(Vlangzamerhand
p6510
I37186
tp6511
a(Vspreekwoordelijk
p6512
I37187
tp6513
a(g1757
I37196
tp6514
a(VErg
p6515
I37201
tp6516
a(g651
I37202
tp6517
a(g50
I37217
tp6518
a(g2423
I37218
tp6519
a(g4363
I37238
tp6520
a(g1524
I37244
tp6521
a(g796
I37248
tp6522
a(g50
I37249
tp6523
a(g458
I37250
tp6524
a(g243
I37251
tp6525
a(g1694
I37255
tp6526
a(g4663
I37258
tp6527
a(g1524
I37265
tp6528
a(Vgeschoven
p6529
I37267
tp6530
a(g40
I37298
tp6531
a(Vgeconstateerd
p6532
I37310
tp6533
a(g155
I37318
tp6534
a(g1524
I37320
tp6535
a(g2773
I37322
tp6536
a(g5885
I37329
tp6537
a(g42
I37339
tp6538
a(g40
I37369
tp6539
a(Vmengde
p6540
I37378
tp6541
a(g56
I37389
tp6542
a(g155
I37391
tp6543
a(Vverslagen
p6544
I37407
tp6545
a(g40
I37415
tp6546
a(g97
I37425
tp6547
a(g40
I37437
tp6548
a(Venthousiast
p6549
I37445
tp6550
a(Vpak
p6551
I37474
tp6552
a(g300
I37476
tp6553
a(Vbedoeld
p6554
I37485
tp6555
a(Vgereserveerde
p6556
I37492
tp6557
a(g4497
I37495
tp6558
a(Vgerechtvaardigde
p6559
I37507
tp6560
a(g66
I37511
tp6561
a(g2004
I37518
tp6562
a(g56
I37522
tp6563
a(VBegreep
p6564
I37523
tp6565
a(g2466
I37525
tp6566
a(g796
I37538
tp6567
a(Vverwachtte
p6568
I37542
tp6569
a(g5669
I37545
tp6570
a(g245
I37549
tp6571
a(g88
I37554
tp6572
a(g1998
I37557
tp6573
a(g675
I37580
tp6574
a(VMademoiselle
p6575
I37581
tp6576
a(g149
I37590
tp6577
a(g796
I37602
tp6578
a(g263
I37603
tp6579
a(Vschilderijen
p6580
I37618
tp6581
a(g66
I37625
tp6582
a(g421
I37642
tp6583
a(g66
I37648
tp6584
a(g2324
I37663
tp6585
a(g3822
I37668
tp6586
a(g1792
I37672
tp6587
a(g360
I37675
tp6588
a(Vonthouden
p6589
I37693
tp6590
a(Vpresteren
p6591
I37695
tp6592
a(g2423
I37700
tp6593
a(g535
I37703
tp6594
a(Vhersens
p6595
I37708
tp6596
a(g40
I37711
tp6597
a(g188
I37715
tp6598
a(Vzwaar
p6599
I37717
tp6600
a(Vverantwoordelijk
p6601
I37726
tp6602
a(g343
I37734
tp6603
a(g582
I37735
tp6604
a(g787
I37737
tp6605
a(g1707
I37813
tp6606
a(Vgearriveerd
p6607
I37817
tp6608
a(g4864
I37843
tp6609
a(g806
I37859
tp6610
a(Vwind
p6611
I37864
tp6612
a(g36
I37866
tp6613
a(g50
I37867
tp6614
a(Vklonk
p6615
I37870
tp6616
a(g66
I37874
tp6617
a(g404
I37880
tp6618
a(g1542
I37886
tp6619
a(g391
I37887
tp6620
a(Vreusachtige
p6621
I37892
tp6622
a(g358
I37899
tp6623
a(g771
I37902
tp6624
a(g1106
I37940
tp6625
a(Vonwezenlijk
p6626
I37941
tp6627
a(g66
I37946
tp6628
a(g188
I37961
tp6629
a(g4524
I37968
tp6630
a(g1001
I37986
tp6631
a(g66
I37998
tp6632
a(g1872
I37999
tp6633
a(Vvervelende
p6634
I38013
tp6635
a(g5914
I38014
tp6636
a(g421
I38022
tp6637
a(g1613
I38024
tp6638
a(g1156
I38028
tp6639
a(g1528
I38032
tp6640
a(g1707
I38037
tp6641
a(g300
I38043
tp6642
a(g960
I38049
tp6643
a(g5135
I38055
tp6644
a(g286
I38059
tp6645
a(g1349
I38062
tp6646
a(g4514
I38075
tp6647
a(g149
I38086
tp6648
a(Vbekritiseren
p6649
I38094
tp6650
a(g144
I38098
tp6651
a(g3468
I38099
tp6652
a(g2503
I38108
tp6653
a(g36
I38124
tp6654
a(g263
I38136
tp6655
a(g50
I38143
tp6656
a(g88
I38144
tp6657
a(g2327
I38150
tp6658
a(g2905
I38175
tp6659
a(g384
I38184
tp6660
a(g5394
I38186
tp6661
a(g775
I38197
tp6662
a(g3720
I38213
tp6663
a(Vuitdrukkelijke
p6664
I38216
tp6665
a(g249
I38222
tp6666
a(g155
I38237
tp6667
a(g34
I38245
tp6668
a(g249
I38248
tp6669
a(Vstap
p6670
I38253
tp6671
a(g1718
I38254
tp6672
a(g1307
I38276
tp6673
a(g1962
I38282
tp6674
a(g1479
I38287
tp6675
a(g421
I38291
tp6676
a(g34
I38301
tp6677
a(g6544
I38309
tp6678
a(g6460
I38314
tp6679
a(g667
I38323
tp6680
a(Vstrekte
p6681
I38327
tp6682
a(Vzachtere
p6683
I38344
tp6684
a(g657
I38355
tp6685
a(Vverliefd
p6686
I38380
tp6687
a(g178
I38386
tp6688
a(g4129
I38393
tp6689
a(g105
I38397
tp6690
a(g50
I38404
tp6691
a(Vmaakte
p6692
I38417
tp6693
a(Vlos
p6694
I38420
tp6695
a(g1580
I38443
tp6696
a(Vachterliet
p6697
I38444
tp6698
a(Vluid
p6699
I38452
tp6700
a(g56
I38466
tp6701
a(Vtoneel
p6702
I38475
tp6703
a(g869
I38476
tp6704
a(Vafgeleverd
p6705
I38489
tp6706
a(VWonderlijke
p6707
I38490
tp6708
a(g1688
I38511
tp6709
a(g144
I38512
tp6710
a(g1998
I38514
tp6711
a(g188
I38521
tp6712
a(g1515
I38524
tp6713
a(g986
I38534
tp6714
a(g36
I38546
tp6715
a(g93
I38547
tp6716
a(g105
I38551
tp6717
a(g710
I38561
tp6718
a(VSchreeuwende
p6719
I38565
tp6720
a(g3018
I38569
tp6721
a(Vjournalisten
p6722
I38579
tp6723
a(g1088
I38584
tp6724
a(Vmenigte
p6725
I38587
tp6726
a(g966
I38621
tp6727
a(g159
I38622
tp6728
a(g1833
I38628
tp6729
a(g159
I38630
tp6730
a(g1554
I38636
tp6731
a(Vopgeheven
p6732
I38640
tp6733
a(Vrotjournalisten
p6734
I38670
tp6735
a(g50
I38675
tp6736
a(Vergste
p6737
I38686
tp6738
a(g263
I38706
tp6739
a(g327
I38707
tp6740
a(g40
I38724
tp6741
a(g2514
I38736
tp6742
a(g2646
I38742
tp6743
a(g675
I38751
tp6744
a(g719
I38758
tp6745
a(g528
I38766
tp6746
a(g188
I38767
tp6747
a(g50
I38771
tp6748
a(g806
I38778
tp6749
a(g1821
I38794
tp6750
a(g4075
I38796
tp6751
a(Vtoespelingen
p6752
I38805
tp6753
a(g188
I38810
tp6754
a(g391
I38818
tp6755
a(g2109
I38820
tp6756
a(g796
I38824
tp6757
a(g1133
I38830
tp6758
a(g88
I38842
tp6759
a(g210
I38845
tp6760
a(g2514
I38852
tp6761
a(g300
I38866
tp6762
a(g4212
I38869
tp6763
a(g56
I38879
tp6764
a(g1426
I38901
tp6765
a(g1942
I38903
tp6766
a(g66
I38915
tp6767
a(g1911
I38916
tp6768
a(g733
I38920
tp6769
a(g40
I38936
tp6770
a(g1473
I38937
tp6771
a(g2667
I38940
tp6772
a(g5718
I38947
tp6773
a(g1251
I38965
tp6774
a(g62
I38966
tp6775
a(g890
I38974
tp6776
a(g1251
I38986
tp6777
a(g36
I38989
tp6778
a(g4822
I38996
tp6779
a(VHm
p6780
I38997
tp6781
a(g960
I39014
tp6782
a(g1911
I39052
tp6783
a(g50
I39055
tp6784
a(g1208
I39062
tp6785
a(g1422
I39064
tp6786
a(g1814
I39065
tp6787
a(Vluister
p6788
I39080
tp6789
a(g2359
I39094
tp6790
a(g62
I39098
tp6791
a(g553
I39104
tp6792
a(Vanalyseren
p6793
I39112
tp6794
a(g2359
I39116
tp6795
a(g3346
I39127
tp6796
a(g2905
I39129
tp6797
a(g1814
I39139
tp6798
a(g1786
I39153
tp6799
a(g5835
I39156
tp6800
a(g4679
I39172
tp6801
a(Verkenning
p6802
I39179
tp6803
a(g5264
I39182
tp6804
a(Vzit
p6805
I39183
tp6806
a(g3535
I39188
tp6807
a(g210
I39195
tp6808
a(Vmogelijkheden
p6809
I39205
tp6810
a(g3273
I39208
tp6811
a(g50
I39212
tp6812
a(Vwerelds
p6813
I39213
tp6814
a(g95
I39214
tp6815
a(Vtoxicologen
p6816
I39215
tp6817
a(g95
I39219
tp6818
a(g404
I39223
tp6819
a(g582
I39229
tp6820
a(g1694
I39233
tp6821
a(g849
I39240
tp6822
a(g88
I39241
tp6823
a(g2566
I39246
tp6824
a(g3772
I39264
tp6825
a(Vonbekend
p6826
I39265
tp6827
a(g1215
I39279
tp6828
a(g249
I39283
tp6829
a(g56
I39293
tp6830
a(g226
I39294
tp6831
a(g251
I39295
tp6832
a(g88
I39304
tp6833
a(g263
I39305
tp6834
a(Vschoot
p6835
I39315
tp6836
a(g178
I39317
tp6837
a(Vafschuwelijke
p6838
I39319
tp6839
a(g155
I39330
tp6840
a(g3865
I39339
tp6841
a(g1609
I39352
tp6842
a(g421
I39355
tp6843
a(g105
I39377
tp6844
a(g171
I39382
tp6845
a(g5901
I39383
tp6846
a(g4528
I39388
tp6847
a(g68
I39397
tp6848
a(g88
I39400
tp6849
a(g188
I39423
tp6850
a(g155
I39432
tp6851
a(g733
I39436
tp6852
a(g2466
I39442
tp6853
a(g360
I39447
tp6854
a(Vgedreigd
p6855
I39449
tp6856
a(g1942
I39455
tp6857
a(g68
I39472
tp6858
a(Vraadselen
p6859
I39478
tp6860
a(Vvoorgesteld
p6861
I39508
tp6862
a(Vstoppen
p6863
I39514
tp6864
a(g2646
I39515
tp6865
a(g251
I39519
tp6866
a(g553
I39536
tp6867
a(Vliever
p6868
I39537
tp6869
a(Vongewroken
p6870
I39538
tp6871
a(g184
I39540
tp6872
a(g1609
I39542
tp6873
a(g155
I39546
tp6874
a(Vonverwachte
p6875
I39560
tp6876
a(Vopschrikken
p6877
I39572
tp6878
a(g4679
I39576
tp6879
a(g224
I39602
tp6880
a(g88
I39609
tp6881
a(g138
I39612
tp6882
a(g632
I39619
tp6883
a(g364
I39623
tp6884
a(g105
I39626
tp6885
a(Vhartverlamming
p6886
I39629
tp6887
a(Vnaderhand
p6888
I39654
tp6889
a(Vkletsen
p6890
I39658
tp6891
a(Vautoriteiten
p6892
I39662
tp6893
a(Vgelasten
p6894
I39665
tp6895
a(g249
I39676
tp6896
a(g56
I39677
tp6897
a(g6634
I39680
tp6898
a(Vverkeren
p6899
I39682
tp6900
a(Vvergissen
p6901
I39696
tp6902
a(g188
I39701
tp6903
a(g263
I39706
tp6904
a(g1644
I39710
tp6905
a(g1197
I39712
tp6906
a(g40
I39715
tp6907
a(g5703
I39739
tp6908
a(g4310
I39749
tp6909
a(Vspreekt
p6910
I39752
tp6911
a(g1285
I39759
tp6912
a(Vklonken
p6913
I39771
tp6914
a(g40
I39787
tp6915
a(g1911
I39804
tp6916
a(Vbezichtigen
p6917
I39814
tp6918
a(g155
I39832
tp6919
a(g1998
I39855
tp6920
a(g117
I39858
tp6921
a(g155
I39870
tp6922
a(Vvastmaken
p6923
I39871
tp6924
a(g56
I39885
tp6925
a(g290
I39893
tp6926
a(g188
I39903
tp6927
a(Vpraten
p6928
I39923
tp6929
a(g62
I39968
tp6930
a(Vvoorziening
p6931
I39971
tp6932
a(g1606
I39972
tp6933
a(g2466
I39982
tp6934
a(Vaandringen
p6935
I39989
tp6936
a(g789
I39992
tp6937
a(g157
I40011
tp6938
a(g2120
I40023
tp6939
a(g66
I40049
tp6940
a(g93
I40062
tp6941
a(Vbinnenstebuiten
p6942
I40067
tp6943
a(Vondersteboven
p6944
I40070
tp6945
a(g2064
I40084
tp6946
a(g1554
I40089
tp6947
a(g66
I40093
tp6948
a(g251
I40095
tp6949
a(g155
I40096
tp6950
a(g5942
I40101
tp6951
a(Vnieuwsgierige
p6952
I40109
tp6953
a(g222
I40115
tp6954
a(g1206
I40121
tp6955
a(g3097
I40128
tp6956
a(g2180
I40133
tp6957
a(Vslenterden
p6958
I40146
tp6959
a(g391
I40158
tp6960
a(g2161
I40159
tp6961
a(g6952
I40160
tp6962
a(Vonttrokken
p6963
I40162
tp6964
a(g259
I40175
tp6965
a(g651
I40197
tp6966
a(g88
I40203
tp6967
a(g302
I40213
tp6968
a(g149
I40217
tp6969
a(g421
I40241
tp6970
a(g787
I40250
tp6971
a(g337
I40271
tp6972
a(g88
I40274
tp6973
a(g155
I40278
tp6974
a(Vrekende
p6975
I40279
tp6976
a(Vsterven
p6977
I40284
tp6978
a(g327
I40291
tp6979
a(g421
I40292
tp6980
a(g1259
I40327
tp6981
a(Vplukte
p6982
I40330
tp6983
a(g2120
I40331
tp6984
a(g5059
I40353
tp6985
a(g117
I40367
tp6986
a(g528
I40369
tp6987
a(g553
I40370
tp6988
a(g4936
I40382
tp6989
a(g157
I40386
tp6990
a(g88
I40394
tp6991
a(g159
I40398
tp6992
a(g528
I40418
tp6993
a(g1654
I40429
tp6994
a(g3472
I40432
tp6995
a(g6497
I40477
tp6996
a(g105
I40481
tp6997
a(g1307
I40486
tp6998
a(g4729
I40493
tp6999
a(g2433
I40495
tp7000
a(g88
I40502
tp7001
a(g657
I40508
tp7002
a(g40
I40518
tp7003
a(g796
I40521
tp7004
a(g255
I40525
tp7005
a(g2584
I40544
tp7006
a(g62
I40573
tp7007
a(g5429
I40576
tp7008
a(Vmedelijden
p7009
I40577
tp7010
a(Vpakte
p7011
I40598
tp7012
a(g40
I40605
tp7013
a(g2566
I40609
tp7014
a(Vzat
p7015
I40616
tp7016
a(g1349
I40658
tp7017
a(g421
I40661
tp7018
a(g1829
I40681
tp7019
a(g249
I40682
tp7020
a(g787
I40684
tp7021
a(g66
I40686
tp7022
a(g796
I40690
tp7023
a(g3230
I40693
tp7024
a(g528
I40700
tp7025
a(g147
I40702
tp7026
a(g5718
I40704
tp7027
a(g657
I40715
tp7028
a(g553
I40721
tp7029
a(VVolgende
p7030
I40731
tp7031
a(g2667
I40740
tp7032
a(Vverdween
p7033
I40752
tp7034
a(g40
I40758
tp7035
a(g5173
I40769
tp7036
a(g208
I40775
tp7037
a(g3853
I40798
tp7038
a(g130
I40801
tp7039
a(g68
I40811
tp7040
a(g188
I40830
tp7041
a(Vbordje
p7042
I40831
tp7043
a(g651
I40855
tp7044
a(g391
I40862
tp7045
a(g404
I40866
tp7046
a(g1054
I40869
tp7047
a(g50
I40874
tp7048
a(g117
I40876
tp7049
a(VIs
p7050
I40881
tp7051
a(g88
I40902
tp7052
a(g4878
I40905
tp7053
a(g66
I40910
tp7054
a(g1942
I40919
tp7055
a(g40
I40922
tp7056
a(g300
I40930
tp7057
a(g13
I40931
tp7058
a(g300
I40942
tp7059
a(g4135
I40944
tp7060
a(g1911
I40946
tp7061
a(g544
I40960
tp7062
a(VLonden
p7063
I40967
tp7064
a(g4909
I40971
tp7065
a(g178
I40974
tp7066
a(g2810
I40986
tp7067
a(g1849
I40991
tp7068
a(g127
I40992
tp7069
a(g421
I41007
tp7070
a(g56
I41012
tp7071
a(Varrestatie
p7072
I41014
tp7073
a(g1120
I41021
tp7074
a(g171
I41029
tp7075
a(Vintussen
p7076
I41038
tp7077
a(g7072
I41047
tp7078
a(g1307
I41062
tp7079
a(g1609
I41069
tp7080
a(g1792
I41077
tp7081
a(g5197
I41078
tp7082
a(g3865
I41082
tp7083
a(g1515
I41086
tp7084
a(g4150
I41098
tp7085
a(g7072
I41109
tp7086
a(g454
I41114
tp7087
a(g3018
I41122
tp7088
a(g3678
I41124
tp7089
a(g40
I41126
tp7090
a(g3550
I41131
tp7091
a(g184
I41141
tp7092
a(g5473
I41156
tp7093
a(g188
I41170
tp7094
a(Vaanzienlijk
p7095
I41171
tp7096
a(g5422
I41176
tp7097
a(g5835
I41192
tp7098
a(Vnadenken
p7099
I41207
tp7100
a(Vbeoordeling
p7101
I41219
tp7102
a(g553
I41228
tp7103
a(Vbekend
p7104
I41229
tp7105
a(g97
I41237
tp7106
a(Vgenade
p7107
I41246
tp7108
a(g528
I41262
tp7109
a(g219
I41265
tp7110
a(g391
I41268
tp7111
a(g147
I41279
tp7112
a(g928
I41287
tp7113
a(g6092
I41290
tp7114
a(g667
I41295
tp7115
a(g56
I41296
tp7116
a(g1542
I41297
tp7117
a(g66
I41304
tp7118
a(g144
I41316
tp7119
a(g40
I41329
tp7120
a(g710
I41331
tp7121
a(g2386
I41334
tp7122
a(g1279
I41335
tp7123
a(g3018
I41341
tp7124
a(Vopensloeg
p7125
I41342
tp7126
a(g7072
I41349
tp7127
a(g222
I41351
tp7128
a(Vonbegrijpelijk
p7129
I41366
tp7130
a(Vveronderstelde
p7131
I41369
tp7132
a(g1439
I41374
tp7133
a(g171
I41377
tp7134
a(Vwenste
p7135
I41379
tp7136
a(g3678
I41380
tp7137
a(g7015
I41381
tp7138
a(g1327
I41387
tp7139
a(g2109
I41391
tp7140
a(g3217
I41393
tp7141
a(g2893
I41397
tp7142
a(Varrestaties
p7143
I41398
tp7144
a(Vhiertoe
p7145
I41423
tp7146
a(g3176
I41425
tp7147
a(Vvertrouwde
p7148
I41437
tp7149
a(g5228
I41442
tp7150
a(g360
I41448
tp7151
a(g2359
I41451
tp7152
a(g66
I41458
tp7153
a(g737
I41472
tp7154
a(g5093
I41482
tp7155
a(g7072
I41498
tp7156
a(g5238
I41503
tp7157
a(g1473
I41521
tp7158
a(g1542
I41532
tp7159
a(g1439
I41536
tp7160
a(g50
I41570
tp7161
a(g2205
I41589
tp7162
a(g188
I41597
tp7163
a(g7072
I41605
tp7164
a(g4878
I41610
tp7165
a(g1054
I41615
tp7166
a(Vvertoning
p7167
I41636
tp7168
a(g147
I41645
tp7169
a(g149
I41646
tp7170
a(g421
I41650
tp7171
a(g286
I41653
tp7172
a(Vbekende
p7173
I41655
tp7174
a(g4878
I41660
tp7175
a(g510
I41674
tp7176
a(g553
I41679
tp7177
a(g1061
I41682
tp7178
a(g113
I41690
tp7179
a(g849
I41703
tp7180
a(g2564
I41706
tp7181
a(Vmeewarige
p7182
I41708
tp7183
a(g741
I41723
tp7184
a(g549
I41726
tp7185
a(g510
I41728
tp7186
a(g88
I41748
tp7187
a(g226
I41755
tp7188
a(g2566
I41764
tp7189
a(Vberoemde
p7190
I41767
tp7191
a(Varts
p7192
I41769
tp7193
a(Vgat
p7194
I41774
tp7195
a(g105
I41775
tp7196
a(g1426
I41776
tp7197
a(g4707
I41777
tp7198
a(g7173
I41796
tp7199
a(g849
I41816
tp7200
a(Vuitoefent
p7201
I41822
tp7202
a(g188
I41831
tp7203
a(g127
I41839
tp7204
a(Vgenaturaliseerd
p7205
I41840
tp7206
a(Vintelligente
p7207
I41843
tp7208
a(g627
I41856
tp7209
a(g1851
I41868
tp7210
a(g421
I41871
tp7211
a(g2389
I41875
tp7212
a(g1307
I41894
tp7213
a(g435
I41910
tp7214
a(Vflink
p7215
I41918
tp7216
a(Vgeroddeld
p7217
I41920
tp7218
a(g88
I41922
tp7219
a(Vonopgemerkt
p7220
I41936
tp7221
a(g510
I41948
tp7222
a(Vmisschien
p7223
I41955
tp7224
a(g23
I41958
tp7225
a(g3107
I41969
tp7226
a(g528
I41982
tp7227
a(g88
I41993
tp7228
a(g300
I41997
tp7229
a(g1942
I42010
tp7230
a(g2849
I42017
tp7231
a(g1342
I42042
tp7232
a(g960
I42044
tp7233
a(g188
I42047
tp7234
a(g1266
I42048
tp7235
a(g2019
I42051
tp7236
a(g1029
I42057
tp7237
a(g5758
I42063
tp7238
a(g155
I42069
tp7239
a(Vonderbroken
p7240
I42078
tp7241
a(g1901
I42081
tp7242
a(g851
I42085
tp7243
a(g2337
I42089
tp7244
a(g657
I42090
tp7245
a(Vvergewissen
p7246
I42094
tp7247
a(g188
I42107
tp7248
a(Vpapier
p7249
I42110
tp7250
a(g3136
I42121
tp7251
a(g36
I42137
tp7252
a(Vkreet
p7253
I42143
tp7254
a(Vvoldoening
p7255
I42145
tp7256
a(g1439
I42168
tp7257
a(g202
I42186
tp7258
a(g3516
I42194
tp7259
a(g327
I42207
tp7260
a(Vonduidelijke
p7261
I42215
tp7262
a(Vvoorletter
p7263
I42216
tp7264
a(g966
I42224
tp7265
a(g528
I42232
tp7266
a(g40
I42237
tp7267
a(g171
I42250
tp7268
a(g36
I42257
tp7269
a(g1479
I42268
tp7270
a(g263
I42270
tp7271
a(g188
I42271
tp7272
a(g510
I42283
tp7273
a(g40
I42297
tp7274
a(Vvastgesteld
p7275
I42299
tp7276
a(g1054
I42315
tp7277
a(Vbedoelde
p7278
I42316
tp7279
a(g1372
I42329
tp7280
a(Vkleerkast
p7281
I42334
tp7282
a(g2566
I42335
tp7283
a(g243
I42342
tp7284
a(g553
I42346
tp7285
a(g155
I42354
tp7286
a(g528
I42364
tp7287
a(g2852
I42367
tp7288
a(g4276
I42378
tp7289
a(g1654
I42382
tp7290
a(g86
I42386
tp7291
a(g787
I42392
tp7292
a(g2456
I42393
tp7293
a(g130
I42411
tp7294
a(g255
I42413
tp7295
a(Vopwinding
p7296
I42431
tp7297
a(g36
I42450
tp7298
a(Videetje
p7299
I42463
tp7300
a(g1342
I42464
tp7301
a(g553
I42481
tp7302
a(Vdinsdag
p7303
I42483
tp7304
a(g327
I42489
tp7305
a(g36
I42490
tp7306
a(g50
I42500
tp7307
a(g1701
I42503
tp7308
a(Vtriomfantelijke
p7309
I42550
tp7310
a(g1342
I42563
tp7311
a(g86
I42569
tp7312
a(g609
I42572
tp7313
a(g5868
I42574
tp7314
a(g155
I42600
tp7315
a(g388
I42639
tp7316
a(g40
I42653
tp7317
a(g877
I42674
tp7318
a(g409
I42680
tp7319
a(g2753
I42709
tp7320
a(g56
I42720
tp7321
a(g66
I42725
tp7322
a(g710
I42738
tp7323
a(g2438
I42747
tp7324
a(g553
I42753
tp7325
a(VSoms
p7326
I42754
tp7327
a(g4883
I42758
tp7328
a(g105
I42766
tp7329
a(g849
I42782
tp7330
a(g1088
I42802
tp7331
a(Vverdrietig
p7332
I42807
tp7333
a(g3176
I42814
tp7334
a(Vbegon
p7335
I42825
tp7336
a(g1642
I42840
tp7337
a(Vzwijgen
p7338
I42842
tp7339
a(Vuitstekend
p7340
I42853
tp7341
a(Vverspilde
p7342
I42864
tp7343
a(Vonvriendelijk
p7344
I42874
tp7345
a(Vstotteren
p7346
I42882
tp7347
a(g286
I42901
tp7348
a(Vmoeilijkheden
p7349
I42911
tp7350
a(g337
I42914
tp7351
a(Vsamen
p7352
I42928
tp7353
a(g2646
I42951
tp7354
a(g40
I42962
tp7355
a(g1166
I42966
tp7356
a(g66
I42970
tp7357
a(g404
I42978
tp7358
a(g99
I42980
tp7359
a(g1685
I42986
tp7360
a(g3134
I43005
tp7361
a(g391
I43014
tp7362
a(g5645
I43027
tp7363
a(g2514
I43028
tp7364
a(g6348
I43038
tp7365
a(g1942
I43044
tp7366
a(g3472
I43062
tp7367
a(g188
I43070
tp7368
a(g1439
I43071
tp7369
a(g769
I43072
tp7370
a(Vopgetogen
p7371
I43078
tp7372
a(g62
I43081
tp7373
a(g68
I43085
tp7374
a(g222
I43093
tp7375
a(Vvader
p7376
I43114
tp7377
a(g222
I43115
tp7378
a(g675
I43142
tp7379
a(g458
I43161
tp7380
a(g280
I43181
tp7381
a(g3751
I43182
tp7382
a(g528
I43199
tp7383
a(g2043
I43204
tp7384
a(g226
I43210
tp7385
a(g36
I43211
tp7386
a(g222
I43234
tp7387
a(Vspeelde
p7388
I43243
tp7389
a(g458
I43247
tp7390
a(g7376
I43274
tp7391
a(g66
I43282
tp7392
a(g1266
I43286
tp7393
a(g962
I43298
tp7394
a(g188
I43305
tp7395
a(g327
I43310
tp7396
a(Vdodelijke
p7397
I43322
tp7398
a(Veentonigheid
p7399
I43323
tp7400
a(Vbijna
p7401
I43329
tp7402
a(g391
I43343
tp7403
a(g3073
I43354
tp7404
a(g526
I43366
tp7405
a(g421
I43382
tp7406
a(g171
I43383
tp7407
a(Vondraaglijke
p7408
I43397
tp7409
a(g7399
I43398
tp7410
a(g3327
I43410
tp7411
a(g1156
I43420
tp7412
a(g1911
I43423
tp7413
a(g2359
I43441
tp7414
a(g796
I43452
tp7415
a(g88
I43495
tp7416
a(g441
I43503
tp7417
a(g226
I43511
tp7418
a(Vpasten
p7419
I43513
tp7420
a(g46
I43517
tp7421
a(g36
I43523
tp7422
a(g263
I43524
tp7423
a(g327
I43526
tp7424
a(g421
I43540
tp7425
a(g66
I43541
tp7426
a(Vtegenwerping
p7427
I43544
tp7428
a(g1197
I43549
tp7429
a(g404
I43561
tp7430
a(g155
I43566
tp7431
a(g1305
I43579
tp7432
a(g155
I43589
tp7433
a(Vwonen
p7434
I43593
tp7435
a(g421
I43604
tp7436
a(Vtijd
p7437
I43624
tp7438
a(g1542
I43626
tp7439
a(g1245
I43637
tp7440
a(g178
I43643
tp7441
a(g2037
I43649
tp7442
a(Vmaagdelijke
p7443
I43650
tp7444
a(g796
I43656
tp7445
a(Vvrijheid
p7446
I43657
tp7447
a(g3979
I43658
tp7448
a(g66
I43667
tp7449
a(g222
I43676
tp7450
a(g2935
I43709
tp7451
a(g66
I43716
tp7452
a(g2288
I43724
tp7453
a(g2244
I43728
tp7454
a(Vachteraf
p7455
I43743
tp7456
a(g300
I43744
tp7457
a(g4878
I43754
tp7458
a(Vbevriezen
p7459
I43761
tp7460
a(g7033
I43765
tp7461
a(g651
I43769
tp7462
a(g1088
I43772
tp7463
a(g510
I43781
tp7464
a(g40
I43782
tp7465
a(g7072
I43787
tp7466
a(g2456
I43799
tp7467
a(g692
I43816
tp7468
a(g1245
I43856
tp7469
a(g388
I43864
tp7470
a(Vijzig
p7471
I43885
tp7472
a(g710
I43889
tp7473
a(VScotland
p7474
I43904
tp7475
a(Vgeprobeerd
p7476
I43927
tp7477
a(g2163
I43933
tp7478
a(Vpogingen
p7479
I43946
tp7480
a(g1707
I43948
tp7481
a(Vhoop
p7482
I43958
tp7483
a(g3822
I43965
tp7484
a(g188
I43992
tp7485
a(g4479
I44000
tp7486
a(g88
I44006
tp7487
a(g280
I44012
tp7488
a(Vvolksliederen
p7489
I44019
tp7490
a(Vcorrespondentie
p7491
I44037
tp7492
a(g50
I44055
tp7493
a(g712
I44064
tp7494
a(g2733
I44068
tp7495
a(g3843
I44072
tp7496
a(g88
I44075
tp7497
a(Vjongedame
p7498
I44100
tp7499
a(g40
I44109
tp7500
a(g222
I44124
tp7501
a(g56
I44136
tp7502
a(Vmorgenochtend
p7503
I44138
tp7504
a(g421
I44165
tp7505
a(g36
I44173
tp7506
a(g144
I44189
tp7507
a(g117
I44190
tp7508
a(g2377
I44192
tp7509
a(g4514
I44197
tp7510
a(g1685
I44198
tp7511
a(g733
I44209
tp7512
a(g3186
I44213
tp7513
a(g263
I44216
tp7514
a(g2852
I44220
tp7515
a(g849
I44232
tp7516
a(g4514
I44241
tp7517
a(g2359
I44243
tp7518
a(g188
I44251
tp7519
a(g784
I44252
tp7520
a(g2566
I44260
tp7521
a(g708
I44265
tp7522
a(g337
I44270
tp7523
a(g3186
I44275
tp7524
a(g4524
I44278
tp7525
a(g188
I44302
tp7526
a(g280
I44328
tp7527
a(Vbinnenkomst
p7528
I44333
tp7529
a(g40
I44349
tp7530
a(g566
I44354
tp7531
a(g40
I44355
tp7532
a(g393
I44366
tp7533
a(Vgrijpen
p7534
I44371
tp7535
a(g7
I44377
tp7536
a(g566
I44379
tp7537
a(g1654
I44386
tp7538
a(g846
I44404
tp7539
a(Vverbeteren
p7540
I44411
tp7541
a(g435
I44427
tp7542
a(g1245
I44432
tp7543
a(g292
I44439
tp7544
a(g1946
I44440
tp7545
a(g5228
I44441
tp7546
a(g56
I44443
tp7547
a(Vaangebroken
p7548
I44458
tp7549
a(g249
I44483
tp7550
a(g66
I44494
tp7551
a(g257
I44498
tp7552
a(Vbederven
p7553
I44508
tp7554
a(Vvoordat
p7555
I44509
tp7556
a(g40
I44510
tp7557
a(g2773
I44520
tp7558
a(g2566
I44527
tp7559
a(g6223
I44533
tp7560
a(g46
I44539
tp7561
a(g249
I44541
tp7562
a(Vchagrijnige
p7563
I44544
tp7564
a(g741
I44553
tp7565
a(Vintelligentie
p7566
I44559
tp7567
a(g40
I44564
tp7568
a(g1342
I44565
tp7569
a(g188
I44575
tp7570
a(Vdagen
p7571
I44585
tp7572
a(g337
I44586
tp7573
a(g7498
I44601
tp7574
a(g849
I44611
tp7575
a(g302
I44620
tp7576
a(g651
I44621
tp7577
a(g226
I44636
tp7578
a(g1064
I44639
tp7579
a(g1911
I44641
tp7580
a(g210
I44647
tp7581
a(g404
I44655
tp7582
a(Vuitgeplozen
p7583
I44672
tp7584
a(Vtikte
p7585
I44675
tp7586
a(Vvingerafdrukken
p7587
I44697
tp7588
a(g7587
I44711
tp7589
a(g1056
I44716
tp7590
a(Vla
p7591
I44724
tp7592
a(g56
I44734
tp7593
a(g1
I44760
tp7594
a(Vvergrotingen
p7595
I44761
tp7596
a(g2971
I44788
tp7597
a(g7587
I44801
tp7598
a(g97
I44825
tp7599
a(Vborg
p7600
I44841
tp7601
a(g2294
I44845
tp7602
a(g2334
I44849
tp7603
a(g7587
I44866
tp7604
a(g683
I44874
tp7605
a(Vvergelijkingsmateriaal
p7606
I44892
tp7607
a(Vvergroting
p7608
I44906
tp7609
a(g409
I44914
tp7610
a(Vspeciale
p7611
I44929
tp7612
a(VBij
p7613
I44939
tp7614
a(VBeste
p7615
I44961
tp7616
a(g7587
I44966
tp7617
a(g902
I44969
tp7618
a(g404
I44973
tp7619
a(g1942
I44974
tp7620
a(g1554
I45053
tp7621
a(g7437
I45075
tp7622
a(Vontkennend
p7623
I45080
tp7624
a(g553
I45093
tp7625
a(g806
I45097
tp7626
a(g188
I45099
tp7627
a(g2849
I45109
tp7628
a(g249
I45110
tp7629
a(g4987
I45117
tp7630
a(g36
I45125
tp7631
a(g337
I45132
tp7632
a(g528
I45139
tp7633
a(g3136
I45151
tp7634
a(g465
I45157
tp7635
a(g5349
I45159
tp7636
a(g4518
I45164
tp7637
a(g3
I45165
tp7638
a(g3186
I45167
tp7639
a(Vbevredigen
p7640
I45169
tp7641
a(Vneuriede
p7642
I45182
tp7643
a(g2466
I45195
tp7644
a(g675
I45210
tp7645
a(g7642
I45214
tp7646
a(g40
I45218
tp7647
a(Vmedicijnen
p7648
I45257
tp7649
a(g528
I45260
tp7650
a(g7587
I45262
tp7651
a(Vsindsdien
p7652
I45263
tp7653
a(Vfoto
p7654
I45273
tp7655
a(Vgewoonste
p7656
I45290
tp7657
a(g1849
I45298
tp7658
a(Vtoegestaan
p7659
I45303
tp7660
a(g1279
I45304
tp7661
a(g2386
I45319
tp7662
a(g1279
I45320
tp7663
a(g553
I45336
tp7664
a(g4524
I45346
tp7665
a(g3176
I45349
tp7666
a(Vgeelimineerd
p7667
I45363
tp7668
a(g263
I45380
tp7669
a(g1957
I45383
tp7670
a(g667
I45389
tp7671
a(g36
I45399
tp7672
a(g147
I45405
tp7673
a(g280
I45444
tp7674
a(g1307
I45450
tp7675
a(g2646
I45451
tp7676
a(g2468
I45452
tp7677
a(Vhuisgenoten
p7678
I45465
tp7679
a(g3800
I45471
tp7680
a(g3996
I45481
tp7681
a(g4896
I45485
tp7682
a(g806
I45501
tp7683
a(g646
I45515
tp7684
a(g1279
I45522
tp7685
a(g66
I45529
tp7686
a(g155
I45532
tp7687
a(g2061
I45534
tp7688
a(g226
I45535
tp7689
a(g226
I45553
tp7690
a(Vvereren
p7691
I45580
tp7692
a(g188
I45595
tp7693
a(g210
I45597
tp7694
a(g391
I45606
tp7695
a(g196
I45625
tp7696
a(Vdiepere
p7697
I45632
tp7698
a(g5761
I45633
tp7699
a(g2238
I45638
tp7700
a(Vvereerd
p7701
I45657
tp7702
a(Vpraatte
p7703
I45664
tp7704
a(g733
I45668
tp7705
a(g88
I45673
tp7706
a(Vgeluid
p7707
I45713
tp7708
a(g1504
I45721
tp7709
a(Vvoordeur
p7710
I45724
tp7711
a(g1513
I45739
tp7712
a(g66
I45744
tp7713
a(g1463
I45745
tp7714
a(g155
I45746
tp7715
a(Vachtergrond
p7716
I45748
tp7717
a(g769
I45749
tp7718
a(g86
I45755
tp7719
a(g3862
I45756
tp7720
a(g2244
I45759
tp7721
a(Vweet
p7722
I45762
tp7723
a(g2262
I45767
tp7724
a(g263
I45770
tp7725
a(g5238
I45776
tp7726
a(g1609
I45782
tp7727
a(g4878
I45787
tp7728
a(g4878
I45792
tp7729
a(g510
I45795
tp7730
a(g3228
I45808
tp7731
a(g4524
I45813
tp7732
a(g428
I45815
tp7733
a(g1307
I45816
tp7734
a(g6036
I45821
tp7735
a(g2433
I45825
tp7736
a(g421
I45826
tp7737
a(g103
I45828
tp7738
a(Vontmoette
p7739
I45842
tp7740
a(g217
I45845
tp7741
a(g7309
I45846
tp7742
a(g97
I45858
tp7743
a(Vtussenliggende
p7744
I45867
tp7745
a(g4834
I45873
tp7746
a(g88
I45874
tp7747
a(g2389
I45877
tp7748
a(Vuitgingen
p7749
I45881
tp7750
a(Vwees
p7751
I45896
tp7752
a(Vonverbiddelijk
p7753
I45897
tp7754
a(g2869
I45899
tp7755
a(g1156
I45916
tp7756
a(g2389
I45921
tp7757
a(g1683
I45925
tp7758
a(g188
I45930
tp7759
a(g3591
I45955
tp7760
a(g3988
I45957
tp7761
a(g23
I45958
tp7762
a(g7050
I45972
tp7763
a(g2780
I45977
tp7764
a(g302
I45979
tp7765
a(VZoals
p7766
I45983
tp7767
a(g667
I45986
tp7768
a(g1609
I46008
tp7769
a(g2359
I46024
tp7770
a(g5032
I46025
tp7771
a(g40
I46028
tp7772
a(g68
I46032
tp7773
a(g127
I46036
tp7774
a(g553
I46048
tp7775
a(g657
I46052
tp7776
a(g36
I46053
tp7777
a(g188
I46056
tp7778
a(g222
I46067
tp7779
a(g2509
I46068
tp7780
a(g36
I46075
tp7781
a(g404
I46076
tp7782
a(g6262
I46077
tp7783
a(g219
I46078
tp7784
a(g4932
I46084
tp7785
a(g40
I46087
tp7786
a(Vgrinnikte
p7787
I46093
tp7788
a(g2462
I46104
tp7789
a(g538
I46113
tp7790
a(g3603
I46120
tp7791
a(g88
I46129
tp7792
a(g62
I46136
tp7793
a(g737
I46142
tp7794
a(g40
I46163
tp7795
a(g68
I46165
tp7796
a(Vdoorgegeven
p7797
I46172
tp7798
a(Vvrijgesproken
p7799
I46184
tp7800
a(g56
I46194
tp7801
a(g928
I46195
tp7802
a(Vslim
p7803
I46199
tp7804
a(g259
I46200
tp7805
a(g56
I46213
tp7806
a(g56
I46224
tp7807
a(g474
I46230
tp7808
a(g58
I46234
tp7809
a(g4936
I46239
tp7810
a(g88
I46243
tp7811
a(g56
I46244
tp7812
a(g7799
I46245
tp7813
a(g1402
I46250
tp7814
a(g2968
I46254
tp7815
a(g171
I46266
tp7816
a(g2852
I46269
tp7817
a(g1426
I46289
tp7818
a(g2125
I46293
tp7819
a(g4932
I46312
tp7820
a(Vontbrekende
p7821
I46321
tp7822
a(g149
I46335
tp7823
a(g5835
I46340
tp7824
a(VHeb
p7825
I46347
tp7826
a(g2687
I46356
tp7827
a(g36
I46363
tp7828
a(g1930
I46364
tp7829
a(Vtussen
p7830
I46365
tp7831
a(g458
I46369
tp7832
a(g103
I46375
tp7833
a(g2380
I46376
tp7834
a(g4363
I46379
tp7835
a(Voprecht
p7836
I46381
tp7837
a(g1874
I46392
tp7838
a(Vstelligste
p7839
I46416
tp7840
a(Vontkend
p7841
I46418
tp7842
a(g1439
I46420
tp7843
a(g257
I46439
tp7844
a(g1800
I46444
tp7845
a(g263
I46446
tp7846
a(g1821
I46451
tp7847
a(Vvanzelfsprekend
p7848
I46452
tp7849
a(g2773
I46454
tp7850
a(g222
I46464
tp7851
a(g428
I46466
tp7852
a(g86
I46480
tp7853
a(Vgeweten
p7854
I46483
tp7855
a(g222
I46486
tp7856
a(g196
I46488
tp7857
a(g1880
I46497
tp7858
a(g7799
I46503
tp7859
a(Vpolitierechtbank
p7860
I46517
tp7861
a(Vrechtskundige
p7862
I46530
tp7863
a(g2359
I46532
tp7864
a(Vaanraden
p7865
I46533
tp7866
a(Vverdediging
p7867
I46535
tp7868
a(g1757
I46538
tp7869
a(g7830
I46555
tp7870
a(Verbuiten
p7871
I46565
tp7872
a(g1054
I46567
tp7873
a(g40
I46573
tp7874
a(Vketen
p7875
I46586
tp7876
a(g2566
I46587
tp7877
a(Vschermen
p7878
I46593
tp7879
a(g88
I46601
tp7880
a(g147
I46613
tp7881
a(g88
I46614
tp7882
a(g1402
I46619
tp7883
a(g56
I46647
tp7884
a(g40
I46656
tp7885
a(g7716
I46661
tp7886
a(g1327
I46668
tp7887
a(g263
I46671
tp7888
a(g657
I46685
tp7889
a(g144
I46695
tp7890
a(g105
I46699
tp7891
a(g4491
I46700
tp7892
a(g6262
I46706
tp7893
a(g219
I46707
tp7894
a(g1197
I46712
tp7895
a(Vmag
p7896
I46718
tp7897
a(g3237
I46723
tp7898
a(g184
I46738
tp7899
a(g4570
I46740
tp7900
a(g4111
I46744
tp7901
a(g553
I46750
tp7902
a(g2356
I46755
tp7903
a(Vvernietigde
p7904
I46756
tp7905
a(g4427
I46767
tp7906
a(g50
I46774
tp7907
a(g7860
I46776
tp7908
a(Vvele
p7909
I46780
tp7910
a(Vherhalingen
p7911
I46781
tp7912
a(Vvermelden
p7913
I46793
tp7914
a(g7867
I46796
tp7915
a(Vuitgesteld
p7916
I46801
tp7917
a(g7
I46809
tp7918
a(Vopenbare
p7919
I46810
tp7920
a(Vfamiliekring
p7921
I46835
tp7922
a(Vopgenomen
p7923
I46836
tp7924
a(g36
I46843
tp7925
a(VMinisterie
p7926
I46844
tp7927
a(g40
I46848
tp7928
a(g6086
I46850
tp7929
a(Vverstreken
p7930
I46860
tp7931
a(g5264
I46865
tp7932
a(g117
I46871
tp7933
a(g56
I46879
tp7934
a(g1810
I46880
tp7935
a(g327
I46898
tp7936
a(g428
I46901
tp7937
a(g109
I46920
tp7938
a(VEmily
p7939
I46924
tp7940
a(g56
I46926
tp7941
a(Vontkende
p7942
I46927
tp7943
a(g1792
I46928
tp7944
a(g7190
I46933
tp7945
a(g7867
I46937
tp7946
a(Vaanklager
p7947
I46943
tp7948
a(g117
I46951
tp7949
a(g561
I46955
tp7950
a(g222
I46964
tp7951
a(Vgepleegd
p7952
I46965
tp7953
a(Vnietsvermoedende
p7954
I46982
tp7955
a(g184
I46991
tp7956
a(g3510
I47021
tp7957
a(g82
I47027
tp7958
a(Vvoornemen
p7959
I47032
tp7960
a(g1036
I47042
tp7961
a(Vverkwister
p7962
I47046
tp7963
a(g1794
I47054
tp7964
a(Vechtgenote
p7965
I47064
tp7966
a(Vruzie
p7967
I47091
tp7968
a(Vgedeelte
p7969
I47094
tp7970
a(g4657
I47100
tp7971
a(g1036
I47103
tp7972
a(Vgedragen
p7973
I47111
tp7974
a(g5197
I47115
tp7975
a(g3772
I47118
tp7976
a(Vechtgenoot
p7977
I47125
tp7978
a(g2514
I47127
tp7979
a(Vkoesterde
p7980
I47132
tp7981
a(g222
I47137
tp7982
a(g280
I47139
tp7983
a(g6086
I47140
tp7984
a(g3073
I47142
tp7985
a(g188
I47143
tp7986
a(g1197
I47154
tp7987
a(g571
I47158
tp7988
a(g458
I47163
tp7989
a(g188
I47167
tp7990
a(g710
I47175
tp7991
a(g2365
I47177
tp7992
a(g2566
I47178
tp7993
a(Vvoorhanden
p7994
I47189
tp7995
a(Vhierin
p7996
I47195
tp7997
a(g2051
I47199
tp7998
a(g2356
I47206
tp7999
a(g7919
I47216
tp8000
a(g5085
I47218
tp8001
a(g155
I47226
tp8002
a(g1054
I47229
tp8003
a(g2051
I47231
tp8004
a(g56
I47246
tp8005
a(g222
I47250
tp8006
a(g2109
I47256
tp8007
a(g337
I47262
tp8008
a(g1439
I47264
tp8009
a(g1426
I47266
tp8010
a(g3310
I47281
tp8011
a(g113
I47282
tp8012
a(g5036
I47289
tp8013
a(g62
I47307
tp8014
a(g949
I47308
tp8015
a(g2356
I47313
tp8016
a(g1036
I47318
tp8017
a(g1036
I47328
tp8018
a(g125
I47329
tp8019
a(g4111
I47367
tp8020
a(Vzijnen
p8021
I47376
tp8022
a(Vrechtsgeldig
p8023
I47380
tp8024
a(g1036
I47384
tp8025
a(g4878
I47386
tp8026
a(Videntiek
p8027
I47403
tp8028
a(g222
I47404
tp8029
a(g155
I47408
tp8030
a(g222
I47416
tp8031
a(Vvermeende
p8032
I47420
tp8033
a(g391
I47424
tp8034
a(Vbelastende
p8035
I47432
tp8036
a(Vdoorslaggevend
p8037
I47438
tp8038
a(g1036
I47446
tp8039
a(g188
I47459
tp8040
a(g7919
I47470
tp8041
a(g46
I47481
tp8042
a(g1433
I47482
tp8043
a(g226
I47490
tp8044
a(g4539
I47495
tp8045
a(g5048
I47498
tp8046
a(Vafgenomen
p8047
I47503
tp8048
a(VErnest
p8049
I47505
tp8050
a(Vtiranniseerde
p8051
I47518
tp8052
a(g2257
I47529
tp8053
a(g2092
I47532
tp8054
a(g188
I47543
tp8055
a(g7919
I47564
tp8056
a(g2359
I47572
tp8057
a(g391
I47573
tp8058
a(g6935
I47579
tp8059
a(g1644
I47582
tp8060
a(g2438
I47585
tp8061
a(g1241
I47590
tp8062
a(g1810
I47596
tp8063
a(Vverdediger
p8064
I47603
tp8065
a(g4539
I47607
tp8066
a(g7942
I47609
tp8067
a(g117
I47615
tp8068
a(g7942
I47616
tp8069
a(g1933
I47618
tp8070
a(VVerscheidene
p8071
I47625
tp8072
a(g1433
I47626
tp8073
a(Vbevestigden
p8074
I47627
tp8075
a(g6276
I47632
tp8076
a(g4018
I47634
tp8077
a(g6276
I47636
tp8078
a(Vmedeondertekenen
p8079
I47640
tp8080
a(g2356
I47643
tp8081
a(g2191
I47644
tp8082
a(g4539
I47647
tp8083
a(g7942
I47654
tp8084
a(g1968
I47655
tp8085
a(g2061
I47660
tp8086
a(Vstelligheid
p8087
I47671
tp8088
a(g226
I47676
tp8089
a(g675
I47689
tp8090
a(g1036
I47694
tp8091
a(g5264
I47704
tp8092
a(Vverzet
p8093
I47708
tp8094
a(g7959
I47715
tp8095
a(g7867
I47718
tp8096
a(g4539
I47729
tp8097
a(g657
I47731
tp8098
a(g2200
I47741
tp8099
a(g7919
I47748
tp8100
a(g6298
I47750
tp8101
a(g3001
I47757
tp8102
a(g188
I47760
tp8103
a(g50
I47768
tp8104
a(g40
I47775
tp8105
a(VVoor
p8106
I47795
tp8107
a(g249
I47809
tp8108
a(g3550
I47812
tp8109
a(VDoor
p8110
I47824
tp8111
a(g155
I47831
tp8112
a(g222
I47839
tp8113
a(g50
I47842
tp8114
a(g4539
I47854
tp8115
a(Vondervraagd
p8116
I47861
tp8117
a(g2019
I47884
tp8118
a(g1439
I47888
tp8119
a(g2359
I47909
tp8120
a(Vnagezonden
p8121
I47910
tp8122
a(g2019
I47915
tp8123
a(g3321
I47921
tp8124
a(g911
I47936
tp8125
a(g222
I47946
tp8126
a(g66
I47951
tp8127
a(g3468
I47957
tp8128
a(g2488
I47961
tp8129
a(g2566
I47967
tp8130
a(g117
I47975
tp8131
a(g88
I47981
tp8132
a(g360
I47983
tp8133
a(g2566
I47997
tp8134
a(g501
I48002
tp8135
a(g1542
I48021
tp8136
a(g2566
I48022
tp8137
a(g155
I48024
tp8138
a(g1036
I48034
tp8139
a(g184
I48043
tp8140
a(g2566
I48046
tp8141
a(g402
I48048
tp8142
a(g2566
I48056
tp8143
a(g787
I48058
tp8144
a(g2142
I48073
tp8145
a(g155
I48076
tp8146
a(g2794
I48082
tp8147
a(Vboeken
p8148
I48103
tp8149
a(Vgenoteerd
p8150
I48104
tp8151
a(g646
I48125
tp8152
a(Vwaaraan
p8153
I48136
tp8154
a(Vgezonden
p8155
I48140
tp8156
a(g1245
I48143
tp8157
a(g528
I48148
tp8158
a(g2852
I48151
tp8159
a(g188
I48152
tp8160
a(g2359
I48157
tp8161
a(g1878
I48159
tp8162
a(g155
I48190
tp8163
a(g1245
I48194
tp8164
a(g56
I48203
tp8165
a(g966
I48207
tp8166
a(g2061
I48213
tp8167
a(g787
I48216
tp8168
a(g542
I48223
tp8169
a(VSir
p8170
I48245
tp8171
a(g88
I48250
tp8172
a(g56
I48251
tp8173
a(g364
I48252
tp8174
a(Vtweede
p8175
I48256
tp8176
a(g2142
I48260
tp8177
a(Vherinnerd
p8178
I48270
tp8179
a(g844
I48291
tp8180
a(g1279
I48296
tp8181
a(g657
I48298
tp8182
a(Vfout
p8183
I48300
tp8184
a(Vwestelijke
p8185
I48309
tp8186
a(g8170
I48329
tp8187
a(Vmeedogenloze
p8188
I48337
tp8189
a(g2433
I48345
tp8190
a(g188
I48351
tp8191
a(Vvoldane
p8192
I48352
tp8193
a(g155
I48365
tp8194
a(g103
I48372
tp8195
a(g710
I48389
tp8196
a(g93
I48394
tp8197
a(g1504
I48395
tp8198
a(g7919
I48403
tp8199
a(g249
I48423
tp8200
a(Vverdraaien
p8201
I48433
tp8202
a(g860
I48438
tp8203
a(Vomgekeerd
p8204
I48449
tp8205
a(g787
I48450
tp8206
a(g178
I48457
tp8207
a(g159
I48468
tp8208
a(g1833
I48476
tp8209
a(g3784
I48487
tp8210
a(g862
I48506
tp8211
a(g219
I48519
tp8212
a(g528
I48535
tp8213
a(g712
I48551
tp8214
a(g117
I48571
tp8215
a(g2433
I48581
tp8216
a(g105
I48584
tp8217
a(g56
I48597
tp8218
a(g46
I48610
tp8219
a(g4539
I48612
tp8220
a(g1694
I48616
tp8221
a(g46
I48626
tp8222
a(g280
I48628
tp8223
a(g1821
I48630
tp8224
a(g1197
I48631
tp8225
a(Vaanleiding
p8226
I48634
tp8227
a(g1247
I48649
tp8228
a(Vondergoed
p8229
I48663
tp8230
a(g46
I48665
tp8231
a(Vgouden
p8232
I48668
tp8233
a(g8027
I48670
tp8234
a(g5873
I48673
tp8235
a(g7973
I48678
tp8236
a(Voverlegd
p8237
I48681
tp8238
a(g222
I48688
tp8239
a(g86
I48691
tp8240
a(g50
I48699
tp8241
a(Vwit
p8242
I48706
tp8243
a(Vkristalpoeder
p8244
I48707
tp8245
a(Vhydrochloride
p8246
I48716
tp8247
a(g2566
I48744
tp8248
a(Vmiddel
p8249
I48751
tp8250
a(g1707
I48755
tp8251
a(g286
I48758
tp8252
a(g4709
I48767
tp8253
a(Vlezen
p8254
I48771
tp8255
a(g7904
I48779
tp8256
a(g2051
I48788
tp8257
a(g3365
I48794
tp8258
a(g360
I48805
tp8259
a(g109
I48807
tp8260
a(g1054
I48827
tp8261
a(g1036
I48838
tp8262
a(Vvierentwintig
p8263
I48841
tp8264
a(Vvoorwerpen
p8265
I48854
tp8266
a(g280
I48858
tp8267
a(g1133
I48867
tp8268
a(g188
I48877
tp8269
a(g928
I48890
tp8270
a(g1077
I48900
tp8271
a(g4860
I48913
tp8272
a(g117
I48917
tp8273
a(g4111
I48930
tp8274
a(g4111
I48949
tp8275
a(g8229
I48956
tp8276
a(g769
I48967
tp8277
a(g286
I48968
tp8278
a(g222
I48970
tp8279
a(g8229
I48971
tp8280
a(g606
I48979
tp8281
a(g1036
I48982
tp8282
a(g6271
I49004
tp8283
a(g1036
I49011
tp8284
a(Vuitgerekend
p8285
I49012
tp8286
a(g7591
I49027
tp8287
a(Vwinterondergoed
p8288
I49029
tp8289
a(g7050
I49035
tp8290
a(g280
I49037
tp8291
a(Vkwestie
p8292
I49046
tp8293
a(Vneergelegd
p8294
I49051
tp8295
a(g2109
I49071
tp8296
a(Vvolgden
p8297
I49078
tp8298
a(g5048
I49080
tp8299
a(g7349
I49085
tp8300
a(g1036
I49088
tp8301
a(VVerklaringen
p8302
I49093
tp8303
a(g188
I49102
tp8304
a(g105
I49106
tp8305
a(g103
I49107
tp8306
a(g226
I49123
tp8307
a(Valleen
p8308
I49128
tp8309
a(Vjegens
p8310
I49132
tp8311
a(g7
I49135
tp8312
a(Vingegeven
p8313
I49140
tp8314
a(Vgetuigenbank
p8315
I49158
tp8316
a(g7942
I49169
tp8317
a(Vnegenentwintigste
p8318
I49188
tp8319
a(g4342
I49195
tp8320
a(g50
I49200
tp8321
a(Vuw
p8322
I49228
tp8323
a(g50
I49246
tp8324
a(g1036
I49259
tp8325
a(g4193
I49263
tp8326
a(g3073
I49268
tp8327
a(g2334
I49282
tp8328
a(g4065
I49292
tp8329
a(g1164
I49297
tp8330
a(Verven
p8331
I49301
tp8332
a(g1759
I49308
tp8333
a(Vonheilspellend
p8334
I49310
tp8335
a(g188
I49316
tp8336
a(g50
I49319
tp8337
a(g8331
I49322
tp8338
a(g1402
I49327
tp8339
a(g8170
I49337
tp8340
a(g62
I49341
tp8341
a(g1197
I49347
tp8342
a(Vzeventien
p8343
I49349
tp8344
a(Vgast
p8345
I49359
tp8346
a(g712
I49362
tp8347
a(g1389
I49377
tp8348
a(g1998
I49393
tp8349
a(g2488
I49397
tp8350
a(Vslingerde
p8351
I49406
tp8352
a(g710
I49412
tp8353
a(g188
I49419
tp8354
a(Vfles
p8355
I49420
tp8356
a(g50
I49441
tp8357
a(Vgroen
p8358
I49448
tp8359
a(g1878
I49455
tp8360
a(Vverklaart
p8361
I49456
tp8362
a(g8322
I49462
tp8363
a(Vtirannieke
p8364
I49467
tp8365
a(g1215
I49468
tp8366
a(g2605
I49473
tp8367
a(Vaangelegd
p8368
I49482
tp8369
a(g8355
I49490
tp8370
a(g2359
I49511
tp8371
a(g66
I49516
tp8372
a(g737
I49517
tp8373
a(g2951
I49522
tp8374
a(g582
I49529
tp8375
a(g2951
I49530
tp8376
a(g245
I49538
tp8377
a(Vinteresse
p8378
I49546
tp8379
a(g1184
I49556
tp8380
a(g1707
I49559
tp8381
a(g1184
I49573
tp8382
a(g553
I49575
tp8383
a(g226
I49576
tp8384
a(Vfeite
p8385
I49581
tp8386
a(g222
I49582
tp8387
a(g1247
I49584
tp8388
a(Vminuten
p8389
I49608
tp8390
a(Verbarmelijk
p8391
I49624
tp8392
a(g7346
I49626
tp8393
a(g188
I49630
tp8394
a(Vduidelijk
p8395
I49633
tp8396
a(g7255
I49634
tp8397
a(g66
I49642
tp8398
a(g2785
I49649
tp8399
a(g280
I49658
tp8400
a(Vdrommen
p8401
I49671
tp8402
a(g226
I49677
tp8403
a(g784
I49681
tp8404
a(Vrechter
p8405
I49687
tp8406
a(g627
I49688
tp8407
a(Vontruimen
p8408
I49694
tp8409
a(g6276
I49705
tp8410
a(g4539
I49709
tp8411
a(Vverklaarden
p8412
I49726
tp8413
a(g103
I49727
tp8414
a(g36
I49753
tp8415
a(g528
I49761
tp8416
a(Vvervalsing
p8417
I49764
tp8418
a(Vuiteenzetting
p8419
I49774
tp8420
a(g7335
I49780
tp8421
a(Vnadrukkelijke
p8422
I49791
tp8423
a(g99
I49796
tp8424
a(Vervaring
p8425
I49805
tp8426
a(g561
I49812
tp8427
a(g222
I49815
tp8428
a(Vgronden
p8429
I49820
tp8430
a(g8035
I49825
tp8431
a(g1794
I49831
tp8432
a(g1206
I49842
tp8433
a(g1707
I49848
tp8434
a(g4713
I49849
tp8435
a(Vonpartijdig
p8436
I49852
tp8437
a(g2566
I49856
tp8438
a(g1036
I49865
tp8439
a(g1780
I49870
tp8440
a(g2794
I49885
tp8441
a(Vverstopt
p8442
I49893
tp8443
a(Vmoedwillige
p8444
I49903
tp8445
a(Vkant
p8446
I49907
tp8447
a(g1036
I49913
tp8448
a(Vmisdaad
p8449
I49915
tp8450
a(g280
I49916
tp8451
a(g7947
I49922
tp8452
a(Vondersteuning
p8453
I49939
tp8454
a(Vbewering
p8455
I49942
tp8456
a(Vbesteld
p8457
I49953
tp8458
a(g1933
I49958
tp8459
a(g1036
I49961
tp8460
a(Vopenlijk
p8461
I49966
tp8462
a(Vtoegegeven
p8463
I49967
tp8464
a(g7349
I49975
tp8465
a(g1990
I49978
tp8466
a(g1036
I49996
tp8467
a(g226
I50000
tp8468
a(g97
I50006
tp8469
a(g1880
I50010
tp8470
a(Vdegene
p8471
I50017
tp8472
a(g117
I50024
tp8473
a(g5703
I50031
tp8474
a(Vvoorstelling
p8475
I50032
tp8476
a(Vvoorgevallen
p8477
I50041
tp8478
a(g710
I50044
tp8479
a(g1036
I50047
tp8480
a(g1036
I50068
tp8481
a(g171
I50070
tp8482
a(g922
I50075
tp8483
a(g2109
I50081
tp8484
a(g62
I50092
tp8485
a(Vconcludeerde
p8486
I50095
tp8487
a(g1933
I50101
tp8488
a(g1036
I50110
tp8489
a(g4857
I50113
tp8490
a(Vbinnengegaan
p8491
I50121
tp8492
a(Vvermomd
p8493
I50122
tp8494
a(g1800
I50129
tp8495
a(g56
I50140
tp8496
a(Vontboden
p8497
I50147
tp8498
a(g103
I50153
tp8499
a(g280
I50155
tp8500
a(g7952
I50159
tp8501
a(g474
I50174
tp8502
a(g157
I50175
tp8503
a(g391
I50180
tp8504
a(Vgestelde
p8505
I50182
tp8506
a(Veisen
p8507
I50183
tp8508
a(g1036
I50185
tp8509
a(g1849
I50199
tp8510
a(g4868
I50222
tp8511
a(Vbevestigen
p8512
I50227
tp8513
a(g249
I50236
tp8514
a(g105
I50237
tp8515
a(g474
I50239
tp8516
a(g4111
I50249
tp8517
a(g465
I50256
tp8518
a(Vrechten
p8519
I50257
tp8520
a(g5349
I50258
tp8521
a(g1962
I50264
tp8522
a(g4657
I50273
tp8523
a(g56
I50275
tp8524
a(Vbegunstigde
p8525
I50277
tp8526
a(Vvervallen
p8527
I50283
tp8528
a(g50
I50288
tp8529
a(g1433
I50293
tp8530
a(g4539
I50295
tp8531
a(g2365
I50306
tp8532
a(g222
I50309
tp8533
a(g1651
I50323
tp8534
a(g4847
I50327
tp8535
a(g2433
I50340
tp8536
a(g769
I50341
tp8537
a(Vpersonen
p8538
I50342
tp8539
a(Vvestigen
p8540
I50350
tp8541
a(g553
I50365
tp8542
a(g1036
I50376
tp8543
a(Vverzoeken
p8544
I50378
tp8545
a(g3073
I50387
tp8546
a(Vtaak
p8547
I50391
tp8548
a(g1911
I50399
tp8549
a(Vanonieme
p8550
I50407
tp8551
a(g56
I50410
tp8552
a(g391
I50418
tp8553
a(Vbestudering
p8554
I50422
tp8555
a(Vwaarmee
p8556
I50426
tp8557
a(g7349
I50430
tp8558
a(g1933
I50433
tp8559
a(Vverleende
p8560
I50438
tp8561
a(g4881
I50442
tp8562
a(g4676
I50448
tp8563
a(g66
I50455
tp8564
a(Vvolstrekt
p8565
I50478
tp8566
a(g4883
I50488
tp8567
a(g2205
I50500
tp8568
a(g105
I50502
tp8569
a(g8308
I50507
tp8570
a(Vgunstige
p8571
I50520
tp8572
a(g4847
I50526
tp8573
a(g5383
I50536
tp8574
a(g1433
I50546
tp8575
a(Venigerlei
p8576
I50551
tp8577
a(g7050
I50563
tp8578
a(Vverwonderlijk
p8579
I50567
tp8580
a(g2061
I50600
tp8581
a(g2687
I50601
tp8582
a(Vdienstmeisje
p8583
I50605
tp8584
a(Vgedeelten
p8585
I50608
tp8586
a(g8585
I50612
tp8587
a(g553
I50621
tp8588
a(Vherkend
p8589
I50622
tp8590
a(VUw
p8591
I50623
tp8592
a(g302
I50627
tp8593
a(g147
I50630
tp8594
a(g741
I50643
tp8595
a(Vondoordachte
p8596
I50648
tp8597
a(g149
I50654
tp8598
a(g155
I50656
tp8599
a(g1188
I50673
tp8600
a(g441
I50674
tp8601
a(g188
I50676
tp8602
a(g117
I50680
tp8603
a(g505
I50697
tp8604
a(g2814
I50708
tp8605
a(g327
I50710
tp8606
a(VVindt
p8607
I50711
tp8608
a(g99
I50717
tp8609
a(Vgelijkenis
p8610
I50718
tp8611
a(g134
I50722
tp8612
a(Vverdraaid
p8613
I50724
tp8614
a(g66
I50730
tp8615
a(Vstellig
p8616
I50732
tp8617
a(g88
I50733
tp8618
a(g8322
I50735
tp8619
a(g134
I50736
tp8620
a(g88
I50743
tp8621
a(g1151
I50754
tp8622
a(g276
I50755
tp8623
a(g542
I50768
tp8624
a(g8455
I50773
tp8625
a(g155
I50783
tp8626
a(g50
I50805
tp8627
a(g155
I50814
tp8628
a(g263
I50820
tp8629
a(g66
I50823
tp8630
a(g8616
I50825
tp8631
a(g88
I50826
tp8632
a(g4255
I50828
tp8633
a(g280
I50829
tp8634
a(g6551
I50831
tp8635
a(g50
I50832
tp8636
a(g50
I50848
tp8637
a(g4818
I50855
tp8638
a(Vtekende
p8639
I50859
tp8640
a(g4818
I50880
tp8641
a(g4915
I50890
tp8642
a(g4822
I50904
tp8643
a(g251
I50907
tp8644
a(Vbewuste
p8645
I50913
tp8646
a(Vmeineed
p8647
I50914
tp8648
a(g245
I50920
tp8649
a(g113
I50927
tp8650
a(Vontmoedigd
p8651
I50934
tp8652
a(g50
I50948
tp8653
a(Vinformeerde
p8654
I50955
tp8655
a(g589
I50961
tp8656
a(g4887
I50962
tp8657
a(Vblij
p8658
I50969
tp8659
a(g587
I50973
tp8660
a(g13
I50975
tp8661
a(g7799
I50981
tp8662
a(Vuitnodiging
p8663
I50992
tp8664
a(g259
I50997
tp8665
a(g300
I51005
tp8666
a(g1349
I51026
tp8667
a(g245
I51037
tp8668
a(Vkaartenhuizen
p8669
I51043
tp8670
a(g56
I51054
tp8671
a(g113
I51064
tp8672
a(Vvereist
p8673
I51074
tp8674
a(Vnauwkeurige
p8675
I51076
tp8676
a(g3603
I51087
tp8677
a(Vineenstorten
p8678
I51116
tp8679
a(Vverdiepingen
p8680
I51129
tp8681
a(g40
I51133
tp8682
a(Vwaarover
p8683
I51137
tp8684
a(g1810
I51140
tp8685
a(g229
I51144
tp8686
a(g5781
I51165
tp8687
a(g2120
I51172
tp8688
a(g2241
I51190
tp8689
a(Vnauwkeurigheid
p8690
I51193
tp8691
a(Vgroeien
p8692
I51201
tp8693
a(g56
I51213
tp8694
a(Vreinste
p8695
I51218
tp8696
a(g538
I51226
tp8697
a(g66
I51229
tp8698
a(g36
I51261
tp8699
a(g50
I51269
tp8700
a(g3746
I51281
tp8701
a(g155
I51290
tp8702
a(g66
I51299
tp8703
a(g566
I51302
tp8704
a(g7904
I51315
tp8705
a(g56
I51342
tp8706
a(g1946
I51386
tp8707
a(g1305
I51389
tp8708
a(g905
I51397
tp8709
a(g1182
I51424
tp8710
a(g40
I51428
tp8711
a(g222
I51433
tp8712
a(g681
I51434
tp8713
a(g683
I51442
tp8714
a(g1307
I51446
tp8715
a(g117
I51459
tp8716
a(Vgarage
p8717
I51467
tp8718
a(g7555
I51476
tp8719
a(g4896
I51479
tp8720
a(g56
I51481
tp8721
a(g36
I51489
tp8722
a(g1001
I51493
tp8723
a(g56
I51494
tp8724
a(g188
I51508
tp8725
a(g117
I51511
tp8726
a(Vaangehouden
p8727
I51519
tp8728
a(Vblikken
p8729
I51526
tp8730
a(Vontmoetten
p8731
I51527
tp8732
a(Vbleven
p8733
I51531
tp8734
a(g97
I51542
tp8735
a(g66
I51543
tp8736
a(g117
I51551
tp8737
a(g222
I51552
tp8738
a(Vwegrende
p8739
I51568
tp8740
a(g42
I51573
tp8741
a(g327
I51582
tp8742
a(g2759
I51584
tp8743
a(g1901
I51600
tp8744
a(Vzondagochtend
p8745
I51611
tp8746
a(Vaanhoudend
p8747
I51627
tp8748
a(Vtoeteren
p8749
I51628
tp8750
a(Vrennen
p8751
I51633
tp8752
a(Vondergaan
p8753
I51652
tp8754
a(g7255
I51657
tp8755
a(g117
I51663
tp8756
a(g1990
I51666
tp8757
a(g327
I51668
tp8758
a(Vsalon
p8759
I51684
tp8760
a(Vtriest
p8761
I51691
tp8762
a(g280
I51698
tp8763
a(g651
I51707
tp8764
a(VNog
p8765
I51709
tp8766
a(Vstralend
p8767
I51711
tp8768
a(g2120
I51721
tp8769
a(g334
I51724
tp8770
a(g1266
I51744
tp8771
a(g245
I51747
tp8772
a(g3256
I51752
tp8773
a(g763
I51769
tp8774
a(g2433
I51782
tp8775
a(g501
I51792
tp8776
a(g1389
I51795
tp8777
a(g2646
I51801
tp8778
a(g1542
I51804
tp8779
a(g188
I51817
tp8780
a(Vspreker
p8781
I51819
tp8782
a(g6692
I51821
tp8783
a(VMessieurs
p8784
I51827
tp8785
a(g5509
I51831
tp8786
a(g2051
I51852
tp8787
a(g155
I51856
tp8788
a(Vdientengevolge
p8789
I51865
tp8790
a(Vdrama
p8791
I51874
tp8792
a(g3420
I51875
tp8793
a(g204
I51882
tp8794
a(g8175
I51885
tp8795
a(g155
I51886
tp8796
a(g4342
I51905
tp8797
a(g204
I51910
tp8798
a(g1722
I51915
tp8799
a(Vaangrenzende
p8800
I51929
tp8801
a(g2423
I51932
tp8802
a(g553
I51944
tp8803
a(g391
I51947
tp8804
a(g2687
I51949
tp8805
a(g171
I51952
tp8806
a(g204
I51965
tp8807
a(g196
I51975
tp8808
a(g2646
I51977
tp8809
a(g222
I51978
tp8810
a(g2051
I52004
tp8811
a(g1998
I52008
tp8812
a(g2423
I52015
tp8813
a(g7015
I52020
tp8814
a(g1554
I52037
tp8815
a(g8292
I52050
tp8816
a(g7476
I52052
tp8817
a(g56
I52058
tp8818
a(Vdaaropvolgende
p8819
I52064
tp8820
a(g3996
I52065
tp8821
a(g1524
I52071
tp8822
a(g46
I52078
tp8823
a(g3176
I52081
tp8824
a(Vvermoedens
p8825
I52085
tp8826
a(g6208
I52095
tp8827
a(g4660
I52096
tp8828
a(g280
I52100
tp8829
a(g50
I52102
tp8830
a(g2687
I52105
tp8831
a(g226
I52109
tp8832
a(g4363
I52111
tp8833
a(g134
I52117
tp8834
a(g66
I52127
tp8835
a(g3176
I52132
tp8836
a(Vverifieren
p8837
I52139
tp8838
a(g2968
I52142
tp8839
a(g2051
I52173
tp8840
a(Vper
p8841
I52183
tp8842
a(g280
I52187
tp8843
a(g8292
I52188
tp8844
a(g2380
I52192
tp8845
a(g6437
I52206
tp8846
a(g4479
I52207
tp8847
a(g2142
I52220
tp8848
a(g155
I52223
tp8849
a(g36
I52235
tp8850
a(g4607
I52236
tp8851
a(g50
I52242
tp8852
a(g134
I52252
tp8853
a(g2738
I52260
tp8854
a(g2051
I52264
tp8855
a(g544
I52269
tp8856
a(g1463
I52278
tp8857
a(g501
I52290
tp8858
a(g5868
I52291
tp8859
a(g88
I52305
tp8860
a(g36
I52313
tp8861
a(g553
I52315
tp8862
a(g2566
I52316
tp8863
a(g255
I52318
tp8864
a(g1484
I52324
tp8865
a(Vkrampen
p8866
I52327
tp8867
a(g844
I52328
tp8868
a(g226
I52338
tp8869
a(g657
I52341
tp8870
a(Vvallen
p8871
I52355
tp8872
a(g3073
I52370
tp8873
a(g280
I52373
tp8874
a(g1454
I52393
tp8875
a(g1659
I52407
tp8876
a(g2423
I52430
tp8877
a(g7678
I52441
tp8878
a(g263
I52459
tp8879
a(g2780
I52461
tp8880
a(g2566
I52481
tp8881
a(g769
I52486
tp8882
a(g117
I52491
tp8883
a(g2386
I52493
tp8884
a(Vmadame
p8885
I52499
tp8886
a(g4822
I52527
tp8887
a(g421
I52537
tp8888
a(g136
I52557
tp8889
a(g88
I52559
tp8890
a(Vzuiverde
p8891
I52564
tp8892
a(g5703
I52570
tp8893
a(g1338
I52571
tp8894
a(g2773
I52591
tp8895
a(g1479
I52592
tp8896
a(g2356
I52598
tp8897
a(g7904
I52599
tp8898
a(Vschudde
p8899
I52601
tp8900
a(g7623
I52602
tp8901
a(g1133
I52607
tp8902
a(g56
I52609
tp8903
a(g2365
I52621
tp8904
a(g844
I52628
tp8905
a(g3487
I52631
tp8906
a(g1946
I52636
tp8907
a(g36
I52639
tp8908
a(g1880
I52649
tp8909
a(Vaanleggen
p8910
I52667
tp8911
a(g1554
I52675
tp8912
a(g171
I52679
tp8913
a(g222
I52689
tp8914
a(g3822
I52694
tp8915
a(Vzesentwintig
p8916
I52699
tp8917
a(Vgraden
p8918
I52700
tp8919
a(g781
I52705
tp8920
a(g4111
I52715
tp8921
a(g769
I52718
tp8922
a(g2019
I52724
tp8923
a(g2466
I52726
tp8924
a(g7
I52732
tp8925
a(g5534
I52742
tp8926
a(g7249
I52743
tp8927
a(VDaarom
p8928
I52746
tp8929
a(g2109
I52750
tp8930
a(g4111
I52760
tp8931
a(g280
I52772
tp8932
a(g4269
I52775
tp8933
a(g657
I52787
tp8934
a(g1439
I52789
tp8935
a(g4111
I52794
tp8936
a(g2356
I52797
tp8937
a(g5394
I52799
tp8938
a(g3365
I52804
tp8939
a(Vhaard
p8940
I52809
tp8941
a(g404
I52816
tp8942
a(g824
I52839
tp8943
a(g4111
I52854
tp8944
a(g7967
I52871
tp8945
a(Vplaatsgevonden
p8946
I52883
tp8947
a(g7996
I52890
tp8948
a(g5779
I52896
tp8949
a(g4683
I52940
tp8950
a(Vterecht
p8951
I52942
tp8952
a(g286
I52947
tp8953
a(g1707
I52958
tp8954
a(g2480
I52964
tp8955
a(g286
I52969
tp8956
a(g5889
I52973
tp8957
a(g66
I52980
tp8958
a(Vechtelijk
p8959
I52988
tp8960
a(g5610
I53003
tp8961
a(Vdiep
p8962
I53019
tp8963
a(Vbekeek
p8964
I53027
tp8965
a(g226
I53078
tp8966
a(Vdeel
p8967
I53087
tp8968
a(g50
I53088
tp8969
a(Vgeldigheid
p8970
I53103
tp8971
a(g105
I53119
tp8972
a(g1433
I53120
tp8973
a(g188
I53129
tp8974
a(Vhevige
p8975
I53132
tp8976
a(g402
I53147
tp8977
a(g280
I53154
tp8978
a(Vsteken
p8979
I53159
tp8980
a(g8226
I53173
tp8981
a(g280
I53179
tp8982
a(g460
I53181
tp8983
a(g263
I53184
tp8984
a(Vverlangend
p8985
I53187
tp8986
a(g4111
I53191
tp8987
a(g155
I53199
tp8988
a(g409
I53205
tp8989
a(g88
I53211
tp8990
a(g8308
I53215
tp8991
a(g1439
I53221
tp8992
a(g1054
I53224
tp8993
a(g8226
I53228
tp8994
a(g1901
I53231
tp8995
a(g479
I53232
tp8996
a(g2056
I53249
tp8997
a(g171
I53253
tp8998
a(g712
I53273
tp8999
a(g222
I53290
tp9000
a(g155
I53291
tp9001
a(Vpostzegels
p9002
I53298
tp9003
a(g4158
I53301
tp9004
a(g1288
I53302
tp9005
a(Vsteeds
p9006
I53305
tp9007
a(Vstuitte
p9008
I53334
tp9009
a(g553
I53349
tp9010
a(g1573
I53352
tp9011
a(Vhardnekkig
p9012
I53366
tp9013
a(Vschriftelijk
p9014
I53370
tp9015
a(g249
I53386
tp9016
a(g50
I53433
tp9017
a(Vgereserveerdheid
p9018
I53434
tp9019
a(Vjaloers
p9020
I53436
tp9021
a(g36
I53455
tp9022
a(g4148
I53478
tp9023
a(g1957
I53481
tp9024
a(g3724
I53487
tp9025
a(Vberaamde
p9026
I53490
tp9027
a(Vjaloerse
p9028
I53498
tp9029
a(g245
I53519
tp9030
a(g50
I53522
tp9031
a(g2423
I53523
tp9032
a(Vscharnieren
p9033
I53531
tp9034
a(Vgeolied
p9035
I53533
tp9036
a(g40
I53546
tp9037
a(g1023
I53550
tp9038
a(g510
I53556
tp9039
a(g280
I53557
tp9040
a(g1476
I53566
tp9041
a(g5217
I53583
tp9042
a(g36
I53588
tp9043
a(g2380
I53591
tp9044
a(g2235
I53596
tp9045
a(g2423
I53600
tp9046
a(g117
I53606
tp9047
a(g113
I53619
tp9048
a(g1665
I53628
tp9049
a(g2423
I53634
tp9050
a(g5223
I53639
tp9051
a(g2423
I53648
tp9052
a(g360
I53654
tp9053
a(g280
I53656
tp9054
a(Vernaast
p9055
I53659
tp9056
a(g1439
I53670
tp9057
a(g458
I53678
tp9058
a(Vverdovend
p9059
I53685
tp9060
a(g8226
I53688
tp9061
a(g5175
I53693
tp9062
a(Vnauwkeurig
p9063
I53698
tp9064
a(g68
I53702
tp9065
a(Vvorige
p9066
I53707
tp9067
a(g251
I53722
tp9068
a(g6793
I53723
tp9069
a(g327
I53732
tp9070
a(Vgedronken
p9071
I53743
tp9072
a(g2566
I53751
tp9073
a(g2521
I53753
tp9074
a(g88
I53755
tp9075
a(g40
I53756
tp9076
a(g40
I53762
tp9077
a(Vdom
p9078
I53766
tp9079
a(g4359
I53787
tp9080
a(g6437
I53793
tp9081
a(g775
I53794
tp9082
a(g188
I53805
tp9083
a(g222
I53809
tp9084
a(g1454
I53811
tp9085
a(g4359
I53825
tp9086
a(g710
I53838
tp9087
a(g1722
I53851
tp9088
a(g280
I53859
tp9089
a(g66
I53864
tp9090
a(g7821
I53870
tp9091
a(g1794
I53880
tp9092
a(g2423
I53894
tp9093
a(g40
I53932
tp9094
a(g188
I53933
tp9095
a(g4445
I53934
tp9096
a(g781
I53939
tp9097
a(g86
I53945
tp9098
a(g667
I53949
tp9099
a(g1942
I53960
tp9100
a(Vdoeltreffend
p9101
I53995
tp9102
a(g2423
I54002
tp9103
a(g263
I54006
tp9104
a(Vgevolg
p9105
I54013
tp9106
a(Vquart
p9107
I54016
tp9108
a(g178
I54029
tp9109
a(g36
I54038
tp9110
a(g5703
I54043
tp9111
a(g2085
I54052
tp9112
a(g5610
I54054
tp9113
a(g1247
I54061
tp9114
a(g2125
I54063
tp9115
a(g1279
I54080
tp9116
a(g2423
I54085
tp9117
a(g4177
I54087
tp9118
a(g13
I54095
tp9119
a(Vkoperen
p9120
I54096
tp9121
a(g36
I54099
tp9122
a(g2235
I54101
tp9123
a(g2566
I54104
tp9124
a(g391
I54109
tp9125
a(Vrestje
p9126
I54111
tp9127
a(g1542
I54144
tp9128
a(VWe
p9129
I54152
tp9130
a(g1880
I54158
tp9131
a(Vvertraagd
p9132
I54165
tp9133
a(g88
I54170
tp9134
a(g2598
I54174
tp9135
a(g155
I54177
tp9136
a(Vreactie
p9137
I54179
tp9138
a(g458
I54202
tp9139
a(g796
I54205
tp9140
a(g36
I54216
tp9141
a(Vvreselijkste
p9142
I54217
tp9143
a(g337
I54226
tp9144
a(g7278
I54236
tp9145
a(g960
I54246
tp9146
a(g7148
I54254
tp9147
a(g2509
I54275
tp9148
a(Vvertraagde
p9149
I54279
tp9150
a(g553
I54288
tp9151
a(Vstuitten
p9152
I54290
tp9153
a(g2843
I54301
tp9154
a(g222
I54308
tp9155
a(g188
I54319
tp9156
a(g280
I54321
tp9157
a(g117
I54334
tp9158
a(Vsplintertjes
p9159
I54351
tp9160
a(g6471
I54352
tp9161
a(g1872
I54354
tp9162
a(g4657
I54367
tp9163
a(g62
I54368
tp9164
a(g2361
I54371
tp9165
a(g155
I54372
tp9166
a(g802
I54377
tp9167
a(Vgekanteld
p9168
I54382
tp9169
a(g4657
I54404
tp9170
a(g5754
I54412
tp9171
a(Vverraderlijke
p9172
I54416
tp9173
a(g458
I54419
tp9174
a(Vgebeurd
p9175
I54427
tp9176
a(g391
I54458
tp9177
a(g846
I54466
tp9178
a(g2843
I54491
tp9179
a(g1849
I54502
tp9180
a(g2598
I54503
tp9181
a(g1054
I54505
tp9182
a(g97
I54516
tp9183
a(Vverdoezelen
p9184
I54530
tp9185
a(g149
I54533
tp9186
a(g134
I54553
tp9187
a(g2746
I54578
tp9188
a(g117
I54581
tp9189
a(g7015
I54582
tp9190
a(g2466
I54583
tp9191
a(g86
I54584
tp9192
a(g2257
I54596
tp9193
a(Vvoorgeschreven
p9194
I54601
tp9195
a(g4047
I54610
tp9196
a(Vvoorlezen
p9197
I54611
tp9198
a(Vrecepten
p9199
I54619
tp9200
a(g2566
I54628
tp9201
a(g710
I54631
tp9202
a(g263
I54633
tp9203
a(g665
I54636
tp9204
a(Vhandboeken
p9205
I54639
tp9206
a(g1266
I54647
tp9207
a(g1849
I54648
tp9208
a(g341
I54656
tp9209
a(Vkristallen
p9210
I54657
tp9211
a(g2235
I54669
tp9212
a(Vneergeslagen
p9213
I54676
tp9214
a(g155
I54680
tp9215
a(g226
I54683
tp9216
a(g3832
I54690
tp9217
a(g1546
I54694
tp9218
a(g2019
I54712
tp9219
a(g4342
I54723
tp9220
a(g1439
I54726
tp9221
a(g280
I54731
tp9222
a(Vbezinken
p9223
I54743
tp9224
a(g4932
I54758
tp9225
a(g2598
I54760
tp9226
a(Vonderin
p9227
I54790
tp9228
a(g6040
I54801
tp9229
a(g280
I54805
tp9230
a(g4982
I54807
tp9231
a(g202
I54809
tp9232
a(g155
I54812
tp9233
a(g2573
I54820
tp9234
a(Vbel
p9235
I54826
tp9236
a(Vlogeerde
p9237
I54831
tp9238
a(g34
I54835
tp9239
a(g4158
I54838
tp9240
a(g280
I54841
tp9241
a(g2061
I54845
tp9242
a(g528
I54853
tp9243
a(g3567
I54858
tp9244
a(Vingeroepen
p9245
I54864
tp9246
a(Vvergat
p9247
I54880
tp9248
a(g710
I54888
tp9249
a(g4177
I54890
tp9250
a(g3487
I54904
tp9251
a(g2598
I54906
tp9252
a(g8263
I54907
tp9253
a(g391
I54918
tp9254
a(g6425
I54926
tp9255
a(g280
I54931
tp9256
a(g5541
I54938
tp9257
a(g56
I54943
tp9258
a(Vstroken
p9259
I54946
tp9260
a(g50
I54962
tp9261
a(g796
I54965
tp9262
a(g4075
I54966
tp9263
a(g1613
I54986
tp9264
a(g36
I54993
tp9265
a(Vgedaante
p9266
I55001
tp9267
a(Vdreigde
p9268
I55004
tp9269
a(g9259
I55011
tp9270
a(g56
I55015
tp9271
a(g3457
I55016
tp9272
a(g566
I55036
tp9273
a(g469
I55045
tp9274
a(g3001
I55052
tp9275
a(g806
I55058
tp9276
a(g144
I55059
tp9277
a(Vheerlijke
p9278
I55061
tp9279
a(g144
I55076
tp9280
a(g3751
I55083
tp9281
a(Vgeniale
p9282
I55095
tp9283
a(g290
I55103
tp9284
a(g5703
I55104
tp9285
a(g34
I55108
tp9286
a(g155
I55112
tp9287
a(Vongetwijfeld
p9288
I55116
tp9289
a(g171
I55124
tp9290
a(Videntiteit
p9291
I55128
tp9292
a(Vomvergegooid
p9293
I55157
tp9294
a(g188
I55184
tp9295
a(g7896
I55187
tp9296
a(g40
I55188
tp9297
a(g955
I55192
tp9298
a(g3003
I55200
tp9299
a(g249
I55204
tp9300
a(g3606
I55208
tp9301
a(g970
I55217
tp9302
a(g188
I55229
tp9303
a(Vvoorarrest
p9304
I55252
tp9305
a(g1329
I55256
tp9306
a(Vbrandend
p9307
I55266
tp9308
a(g418
I55267
tp9309
a(Vbrug
p9310
I55276
tp9311
a(g1542
I55281
tp9312
a(g5228
I55293
tp9313
a(Vtoegelaten
p9314
I55297
tp9315
a(g3768
I55308
tp9316
a(g50
I55323
tp9317
a(g849
I55325
tp9318
a(g1479
I55341
tp9319
a(g40
I55350
tp9320
a(g62
I55355
tp9321
a(g7
I55361
tp9322
a(Vgeroken
p9323
I55373
tp9324
a(g2915
I55384
tp9325
a(g5513
I55387
tp9326
a(g1479
I55403
tp9327
a(g2968
I55406
tp9328
a(g1208
I55408
tp9329
a(g263
I55423
tp9330
a(g1680
I55427
tp9331
a(Vvriendelijker
p9332
I55446
tp9333
a(g62
I55457
tp9334
a(g8071
I55467
tp9335
a(Vmalen
p9336
I55468
tp9337
a(g962
I55475
tp9338
a(g4860
I55479
tp9339
a(g737
I55480
tp9340
a(Vooit
p9341
I55482
tp9342
a(g4936
I55497
tp9343
a(g56
I55505
tp9344
a(g3468
I55518
tp9345
a(g2464
I55528
tp9346
a(g669
I55544
tp9347
a(g1197
I55557
tp9348
a(g4878
I55575
tp9349
a(g5764
I55583
tp9350
a(g3067
I55602
tp9351
a(g50
I55605
tp9352
a(g3233
I55617
tp9353
a(g40
I55623
tp9354
a(g46
I55625
tp9355
a(g40
I55633
tp9356
a(g50
I55637
tp9357
a(g5264
I55638
tp9358
a(g675
I55648
tp9359
a(g88
I55653
tp9360
a(g88
I55662
tp9361
a(g712
I55668
tp9362
a(g571
I55677
tp9363
a(g2356
I55682
tp9364
a(g2968
I55695
tp9365
a(g280
I55713
tp9366
a(g5238
I55724
tp9367
a(g4263
I55742
tp9368
a(g2359
I55751
tp9369
a(Vgeneigd
p9370
I55754
tp9371
a(g219
I55757
tp9372
a(g698
I55769
tp9373
a(g657
I55791
tp9374
a(g4294
I55795
tp9375
a(g3
I55817
tp9376
a(g1950
I55843
tp9377
a(g222
I55857
tp9378
a(g5181
I55860
tp9379
a(g769
I55871
tp9380
a(g1439
I55880
tp9381
a(g56
I55881
tp9382
a(Vdoodeenvoudige
p9383
I55889
tp9384
a(g796
I55893
tp9385
a(g171
I55897
tp9386
a(g632
I55900
tp9387
a(g5968
I55904
tp9388
a(g528
I55907
tp9389
a(Vhoge
p9390
I55909
tp9391
a(g4878
I55924
tp9392
a(g40
I55933
tp9393
a(g249
I55939
tp9394
a(g6423
I55940
tp9395
a(g188
I55961
tp9396
a(g7799
I55970
tp9397
a(g36
I55982
tp9398
a(g2566
I55985
tp9399
a(g2359
I55989
tp9400
a(g56
I56002
tp9401
a(g5197
I56010
tp9402
a(g36
I56021
tp9403
a(g302
I56022
tp9404
a(g5741
I56029
tp9405
a(g3194
I56034
tp9406
a(g4878
I56041
tp9407
a(g402
I56043
tp9408
a(Vwaterdichte
p9409
I56048
tp9410
a(g56
I56057
tp9411
a(Vklaargespeeld
p9412
I56074
tp9413
a(g1878
I56092
tp9414
a(g263
I56093
tp9415
a(g743
I56105
tp9416
a(g966
I56119
tp9417
a(g327
I56123
tp9418
a(g360
I56134
tp9419
a(g251
I56137
tp9420
a(g1794
I56141
tp9421
a(Vzult
p9422
I56148
tp9423
a(g155
I56157
tp9424
a(g3849
I56167
tp9425
a(Vuitgeslapen
p9426
I56176
tp9427
a(g404
I56183
tp9428
a(VBon
p9429
I56198
tp9430
a(g66
I56199
tp9431
a(g219
I56212
tp9432
a(g280
I56216
tp9433
a(g88
I56225
tp9434
a(g222
I56234
tp9435
a(Vklaar
p9436
I56242
tp9437
a(g2423
I56262
tp9438
a(g36
I56268
tp9439
a(Vstuderen
p9440
I56269
tp9441
a(Vbromide
p9442
I56287
tp9443
a(g2257
I56292
tp9444
a(g249
I56296
tp9445
a(g178
I56304
tp9446
a(g188
I56310
tp9447
a(g4177
I56317
tp9448
a(g3346
I56321
tp9449
a(g50
I56326
tp9450
a(g13
I56334
tp9451
a(g251
I56339
tp9452
a(g553
I56350
tp9453
a(g1439
I56356
tp9454
a(g5225
I56357
tp9455
a(g5000
I56366
tp9456
a(g337
I56378
tp9457
a(g1158
I56385
tp9458
a(Vverstreek
p9459
I56395
tp9460
a(g5197
I56401
tp9461
a(g787
I56405
tp9462
a(g222
I56407
tp9463
a(g5733
I56415
tp9464
a(g364
I56436
tp9465
a(g88
I56443
tp9466
a(Vondergang
p9467
I56446
tp9468
a(Vbedachten
p9469
I56460
tp9470
a(g5197
I56465
tp9471
a(g2615
I56485
tp9472
a(g56
I56501
tp9473
a(g2332
I56504
tp9474
a(g1849
I56505
tp9475
a(g188
I56513
tp9476
a(g50
I56517
tp9477
a(g3916
I56526
tp9478
a(g5190
I56532
tp9479
a(g1816
I56536
tp9480
a(g1056
I56550
tp9481
a(g8493
I56553
tp9482
a(g188
I56563
tp9483
a(g4657
I56582
tp9484
a(g171
I56590
tp9485
a(g136
I56591
tp9486
a(g528
I56595
tp9487
a(Vafgelegen
p9488
I56610
tp9489
a(g902
I56612
tp9490
a(g144
I56622
tp9491
a(g155
I56644
tp9492
a(g8576
I56645
tp9493
a(g1542
I56660
tp9494
a(g5197
I56670
tp9495
a(Vkabel
p9496
I56684
tp9497
a(g553
I56691
tp9498
a(g188
I56711
tp9499
a(g1818
I56743
tp9500
a(g360
I56761
tp9501
a(g88
I56767
tp9502
a(g657
I56777
tp9503
a(g88
I56787
tp9504
a(g171
I56813
tp9505
a(Vopenmaken
p9506
I56825
tp9507
a(g2238
I56829
tp9508
a(g796
I56838
tp9509
a(g3420
I56840
tp9510
a(Vrealiseert
p9511
I56845
tp9512
a(Vverraderlijk
p9513
I56854
tp9514
a(g3030
I56856
tp9515
a(g136
I56859
tp9516
a(g88
I56875
tp9517
a(g280
I56877
tp9518
a(g5531
I56879
tp9519
a(g36
I56885
tp9520
a(g641
I56902
tp9521
a(g710
I56910
tp9522
a(Vmorgen
p9523
I56911
tp9524
a(g571
I56921
tp9525
a(g2356
I56923
tp9526
a(g4111
I56925
tp9527
a(g657
I56939
tp9528
a(g2294
I56948
tp9529
a(g787
I56953
tp9530
a(g88
I56959
tp9531
a(Vonderkende
p9532
I56972
tp9533
a(g712
I56988
tp9534
a(g56
I56997
tp9535
a(g2365
I57001
tp9536
a(Vallergrootste
p9537
I57015
tp9538
a(g6103
I57018
tp9539
a(g210
I57025
tp9540
a(g553
I57028
tp9541
a(g97
I57035
tp9542
a(Vtonele
p9543
I57066
tp9544
a(g869
I57067
tp9545
a(g103
I57078
tp9546
a(g249
I57079
tp9547
a(g928
I57080
tp9548
a(g109
I57106
tp9549
a(g769
I57110
tp9550
a(Vgeopend
p9551
I57119
tp9552
a(Vrent
p9553
I57121
tp9554
a(g1998
I57164
tp9555
a(g1327
I57168
tp9556
a(Vterwille
p9557
I57173
tp9558
a(g3341
I57189
tp9559
a(g327
I57202
tp9560
a(g157
I57206
tp9561
a(g553
I57211
tp9562
a(Vgefouilleerd
p9563
I57227
tp9564
a(g155
I57233
tp9565
a(g2566
I57235
tp9566
a(Vbetekent
p9567
I57237
tp9568
a(g9467
I57241
tp9569
a(g1486
I57248
tp9570
a(g88
I57253
tp9571
a(g2935
I57270
tp9572
a(g462
I57273
tp9573
a(g50
I57276
tp9574
a(g2971
I57283
tp9575
a(g4111
I57293
tp9576
a(g3060
I57300
tp9577
a(g66
I57314
tp9578
a(g3958
I57324
tp9579
a(Vopgerold
p9580
I57334
tp9581
a(Vvaas
p9582
I57342
tp9583
a(g3746
I57345
tp9584
a(Vopgerolde
p9585
I57349
tp9586
a(g657
I57355
tp9587
a(g7253
I57364
tp9588
a(g249
I57368
tp9589
a(Vzoeken
p9590
I57374
tp9591
a(g4111
I57398
tp9592
a(g36
I57404
tp9593
a(g2117
I57421
tp9594
a(g1856
I57424
tp9595
a(g737
I57431
tp9596
a(Vfortuinlijke
p9597
I57434
tp9598
a(g2839
I57435
tp9599
a(g421
I57441
tp9600
a(g1911
I57450
tp9601
a(g2810
I57455
tp9602
a(g40
I57456
tp9603
a(g1133
I57466
tp9604
a(g1463
I57469
tp9605
a(g68
I57477
tp9606
a(g1120
I57490
tp9607
a(g1613
I57505
tp9608
a(g8226
I57510
tp9609
a(g7076
I57520
tp9610
a(g4342
I57523
tp9611
a(g40
I57528
tp9612
a(g4158
I57529
tp9613
a(Vuitzonderlijke
p9614
I57533
tp9615
a(g40
I57557
tp9616
a(g553
I57561
tp9617
a(g1422
I57570
tp9618
a(g4111
I57578
tp9619
a(g404
I57595
tp9620
a(g441
I57602
tp9621
a(g796
I57612
tp9622
a(g8477
I57617
tp9623
a(g423
I57647
tp9624
a(g226
I57658
tp9625
a(g249
I57660
tp9626
a(g1342
I57662
tp9627
a(g2814
I57664
tp9628
a(g62
I57666
tp9629
a(g789
I57669
tp9630
a(g88
I57671
tp9631
a(g928
I57672
tp9632
a(Vverhinderen
p9633
I57684
tp9634
a(g249
I57688
tp9635
a(g4111
I57689
tp9636
a(g5197
I57694
tp9637
a(g3862
I57718
tp9638
a(g56
I57730
tp9639
a(g4506
I57732
tp9640
a(Vondernemen
p9641
I57735
tp9642
a(g4111
I57740
tp9643
a(g5779
I57745
tp9644
a(g761
I57749
tp9645
a(g3176
I57751
tp9646
a(g4657
I57787
tp9647
a(g1872
I57796
tp9648
a(Vaangenomen
p9649
I57797
tp9650
a(Vveroordeeld
p9651
I57809
tp9652
a(Vontmoeting
p9653
I57817
tp9654
a(g5625
I57819
tp9655
a(g7
I57837
tp9656
a(g712
I57840
tp9657
a(g454
I57844
tp9658
a(Vrisicos
p9659
I57853
tp9660
a(g789
I57854
tp9661
a(g46
I57868
tp9662
a(g222
I57874
tp9663
a(g922
I57875
tp9664
a(g2852
I57893
tp9665
a(g6414
I57899
tp9666
a(g2464
I57908
tp9667
a(g8753
I57912
tp9668
a(g1327
I57916
tp9669
a(g5835
I57929
tp9670
a(g226
I57935
tp9671
a(g36
I57936
tp9672
a(g4363
I57937
tp9673
a(Vgelogen
p9674
I57938
tp9675
a(g50
I57945
tp9676
a(g2150
I57948
tp9677
a(g5433
I57955
tp9678
a(Vgelezen
p9679
I57960
tp9680
a(g949
I57968
tp9681
a(g2431
I57976
tp9682
a(g2019
I57981
tp9683
a(Vmevrouw
p9684
I57983
tp9685
a(g435
I57985
tp9686
a(Vkarakteristiek
p9687
I57986
tp9688
a(g286
I57995
tp9689
a(g542
I58016
tp9690
a(g796
I58020
tp9691
a(g7173
I58024
tp9692
a(g155
I58038
tp9693
a(g4699
I58040
tp9694
a(g36
I58050
tp9695
a(g945
I58051
tp9696
a(g263
I58056
tp9697
a(g109
I58091
tp9698
a(g188
I58092
tp9699
a(Vbedriegelijk
p9700
I58099
tp9701
a(Vgeknoeid
p9702
I58101
tp9703
a(g3259
I58110
tp9704
a(g5197
I58119
tp9705
a(g2019
I58123
tp9706
a(g3853
I58129
tp9707
a(g1942
I58141
tp9708
a(g627
I58146
tp9709
a(g421
I58149
tp9710
a(g5473
I58152
tp9711
a(g553
I58158
tp9712
a(g88
I58163
tp9713
a(g5473
I58168
tp9714
a(g5473
I58209
tp9715
a(Vdaartegen
p9716
I58211
tp9717
a(Vpleitten
p9718
I58212
tp9719
a(g2109
I58215
tp9720
a(g1245
I58223
tp9721
a(g1990
I58229
tp9722
a(g632
I58233
tp9723
a(g860
I58237
tp9724
a(Vmaskeren
p9725
I58239
tp9726
a(VOngetwijfeld
p9727
I58240
tp9728
a(Vhartstochtelijk
p9729
I58244
tp9730
a(g155
I58246
tp9731
a(g56
I58262
tp9732
a(g6023
I58284
tp9733
a(Vingenieus
p9734
I58294
tp9735
a(g761
I58311
tp9736
a(g1680
I58326
tp9737
a(g5197
I58333
tp9738
a(Vvoorbereidingen
p9739
I58342
tp9740
a(Vcompromitterende
p9741
I58355
tp9742
a(g5197
I58364
tp9743
a(Vbesteedt
p9744
I58368
tp9745
a(g1372
I58372
tp9746
a(g88
I58399
tp9747
a(g538
I58427
tp9748
a(g155
I58429
tp9749
a(g2061
I58436
tp9750
a(g280
I58440
tp9751
a(g88
I58447
tp9752
a(g528
I58463
tp9753
a(g528
I58473
tp9754
a(g1998
I58474
tp9755
a(g4801
I58476
tp9756
a(g1683
I58480
tp9757
a(g1133
I58490
tp9758
a(g2423
I58497
tp9759
a(g1349
I58507
tp9760
a(VOnmogelijk
p9761
I58508
tp9762
a(g553
I58510
tp9763
a(g149
I58513
tp9764
a(g40
I58523
tp9765
a(g675
I58529
tp9766
a(g2356
I58531
tp9767
a(g1707
I58533
tp9768
a(g1911
I58552
tp9769
a(g188
I58566
tp9770
a(g1942
I58575
tp9771
a(g140
I58592
tp9772
a(g675
I58608
tp9773
a(g1463
I58612
tp9774
a(g2423
I58620
tp9775
a(g553
I58622
tp9776
a(g404
I58627
tp9777
a(g88
I58628
tp9778
a(g222
I58635
tp9779
a(Vdroog
p9780
I58642
tp9781
a(g130
I58650
tp9782
a(g849
I58655
tp9783
a(g117
I58657
tp9784
a(g6686
I58672
tp9785
a(g1114
I58680
tp9786
a(g66
I58690
tp9787
a(g6686
I58697
tp9788
a(g1342
I58701
tp9789
a(VWie
p9790
I58709
tp9791
a(VLa
p9792
I58718
tp9793
a(g391
I58725
tp9794
a(g36
I58737
tp9795
a(Vdegelijk
p9796
I58741
tp9797
a(g966
I58762
tp9798
a(g3433
I58763
tp9799
a(g1515
I58764
tp9800
a(g105
I58779
tp9801
a(g2423
I58780
tp9802
a(g62
I58790
tp9803
a(Vdomme
p9804
I58796
tp9805
a(g6686
I58802
tp9806
a(g2423
I58828
tp9807
a(g249
I58834
tp9808
a(g391
I58847
tp9809
a(Vgruzelementen
p9810
I58848
tp9811
a(g68
I58852
tp9812
a(g4657
I58857
tp9813
a(g56
I58866
tp9814
a(g528
I58869
tp9815
a(g6392
I58870
tp9816
a(g50
I58879
tp9817
a(g1923
I58894
tp9818
a(g450
I58898
tp9819
a(g4163
I58901
tp9820
a(g4518
I58905
tp9821
a(g5264
I58914
tp9822
a(g2503
I58917
tp9823
a(g251
I58919
tp9824
a(g251
I58931
tp9825
a(g2521
I58936
tp9826
a(g40
I58947
tp9827
a(g229
I58966
tp9828
a(g4709
I58968
tp9829
a(g5197
I58973
tp9830
a(g8765
I58980
tp9831
a(g1054
I58983
tp9832
a(g7278
I58984
tp9833
a(g458
I58987
tp9834
a(g4932
I58988
tp9835
a(g105
I58994
tp9836
a(g88
I59018
tp9837
a(g3001
I59023
tp9838
a(Vverzoend
p9839
I59034
tp9840
a(g1878
I59039
tp9841
a(Vbedoel
p9842
I59040
tp9843
a(g226
I59057
tp9844
a(g222
I59071
tp9845
a(g103
I59076
tp9846
a(g566
I59082
tp9847
a(Vgegroeid
p9848
I59089
tp9849
a(g9105
I59093
tp9850
a(g188
I59095
tp9851
a(g50
I59102
tp9852
a(Vopdringen
p9853
I59124
tp9854
a(g155
I59130
tp9855
a(Vliefde
p9856
I59139
tp9857
a(g1680
I59145
tp9858
a(g222
I59149
tp9859
a(g7753
I59156
tp9860
a(Vverzeilde
p9861
I59160
tp9862
a(g103
I59170
tp9863
a(g404
I59179
tp9864
a(g88
I59180
tp9865
a(g1479
I59181
tp9866
a(g4878
I59190
tp9867
a(g1288
I59197
tp9868
a(Vindenken
p9869
I59207
tp9870
a(g1946
I59212
tp9871
a(g1439
I59236
tp9872
a(g553
I59237
tp9873
a(g62
I59239
tp9874
a(Vvrij
p9875
I59241
tp9876
a(g88
I59245
tp9877
a(g2915
I59248
tp9878
a(g438
I59257
tp9879
a(g2466
I59264
tp9880
a(g245
I59265
tp9881
a(g155
I59266
tp9882
a(g8361
I59283
tp9883
a(g892
I59285
tp9884
a(g125
I59298
tp9885
a(g292
I59308
tp9886
a(g13
I59311
tp9887
a(g226
I59322
tp9888
a(VStomverbaasd
p9889
I59325
tp9890
a(g391
I59329
tp9891
a(g4297
I59360
tp9892
a(g771
I59364
tp9893
a(Vglimlachte
p9894
I59374
tp9895
a(g1208
I59378
tp9896
a(Vveroordelen
p9897
I59392
tp9898
a(g3849
I59404
tp9899
a(g1735
I59406
tp9900
a(g936
I59411
tp9901
a(g375
I59428
tp9902
a(g2584
I59431
tp9903
a(g50
I59435
tp9904
a(g222
I59440
tp9905
a(Vopgeschrokken
p9906
I59441
tp9907
a(g651
I59456
tp9908
a(g3898
I59473
tp9909
a(g6375
I59476
tp9910
a(g458
I59490
tp9911
a(g3353
I59508
tp9912
a(g66
I59523
tp9913
a(g1942
I59543
tp9914
a(g1389
I59548
tp9915
a(Vfrunniken
p9916
I59554
tp9917
a(g391
I59602
tp9918
a(g2705
I59604
tp9919
a(g2573
I59609
tp9920
a(g741
I59615
tp9921
a(g1305
I59623
tp9922
a(g88
I59631
tp9923
a(Vfeliciteren
p9924
I59644
tp9925
a(g1800
I59660
tp9926
a(Vaardige
p9927
I59682
tp9928
a(g171
I59685
tp9929
a(g553
I59699
tp9930
a(g391
I59700
tp9931
a(g184
I59715
tp9932
a.