(lp0
(Venorme
p1
I1
tp2
a(Vbelangstelling
p3
I2
tp4
a(Vtoonde
p5
I6
tp6
a(Vindertijd
p7
I9
tp8
a(Vbetrokken
p9
I31
tp10
a(Vgezien
p11
I42
tp12
a(Vvoorgoed
p13
I61
tp14
a(Veinde
p15
I63
tp16
a(Vsensationele
p17
I68
tp18
a(Vertoe
p19
I86
tp20
a(Vhad
p21
I110
tp22
a(Vvrienden
p23
I128
tp24
a(Vhet
p25
I134
tp26
a(Vgaan
p27
I139
tp28
a(Vik
p29
I142
tp30
a(Vtegen
p31
I145
tp32
a(Vhem
p33
I160
tp34
a(Vouder
p35
I173
tp36
a(Vhele
p37
I203
tp38
a(Vvoegde
p39
I238
tp40
a(VIs
p41
I242
tp42
a(VIk
p43
I256
tp44
a(Vblijken
p45
I265
tp46
a(Vdie
p47
I268
tp48
a(VJohns
p49
I270
tp50
a(Vtoen
p51
I273
tp52
a(g43
I298
tp53
a(Vdominerende
p54
I305
tp55
a(Vliet
p56
I316
tp57
a(Vweldoenster
p58
I323
tp59
a(Vwas
p60
I326
tp61
a(Vvermogen
p62
I334
tp63
a(g25
I338
tp64
a(Vtrouwen
p65
I342
tp66
a(Val
p67
I353
tp68
a(Vdat
p69
I360
tp70
a(Vdood
p71
I365
tp72
a(g25
I366
tp73
a(g47
I384
tp74
a(Voneerlijk
p75
I386
tp76
a(g69
I403
tp77
a(Vhertrouwde
p78
I417
tp79
a(Vzij
p80
I419
tp81
a(Veigen
p82
I423
tp83
a(VHij
p84
I437
tp85
a(Vgeworden
p86
I440
tp87
a(Veraan
p88
I446
tp89
a(Vnoemenswaardig
p90
I462
tp91
a(Vuiteindelijk
p92
I473
tp93
a(Vgeleden
p94
I482
tp95
a(Vvermoeden
p96
I498
tp97
a(Vmoeder
p98
I508
tp99
a(Vstellen
p100
I517
tp101
a(Vwonen
p102
I521
tp103
a(Vverlangde
p104
I537
tp105
a(Vmoeders
p106
I569
tp107
a(Vnog
p108
I576
tp109
a(Vhij
p110
I582
tp111
a(Vzal
p112
I605
tp113
a(Vja
p114
I619
tp115
a(VNou
p116
I630
tp117
a(Veigenlijk
p118
I648
tp119
a(Vopdagen
p120
I660
tp121
a(g110
I665
tp122
a(Vop
p123
I678
tp124
a(Vvent
p125
I690
tp126
a(g84
I696
tp127
a(Veen
p128
I698
tp129
a(g21
I710
tp130
a(g123
I716
tp131
a(Vnam
p132
I718
tp133
a(Vals
p134
I722
tp135
a(Vverenigingen
p136
I730
tp137
a(Vwonder
p138
I746
tp139
a(Vgoed
p140
I751
tp141
a(Vte
p142
I752
tp143
a(g128
I760
tp144
a(g94
I773
tp145
a(g128
I816
tp146
a(Vmoeilijke
p147
I817
tp148
a(Vonmogelijke
p149
I822
tp150
a(Vstationnetje
p151
I846
tp152
a(Vduidelijke
p153
I849
tp154
a(Vgroene
p155
I854
tp156
a(g25
I863
tp157
a(VDat
p158
I886
tp159
a(Vvan
p160
I906
tp161
a(g128
I922
tp162
a(Vrustige
p163
I923
tp164
a(Vdag
p165
I925
tp166
a(Vgeloven
p167
I953
tp168
a(Vzo
p169
I957
tp170
a(g43
I965
tp171
a(g60
I976
tp172
a(Vterechtgekomen
p173
I977
tp174
a(Vbij
p175
I982
tp176
a(Vvinden
p177
I997
tp178
a(VBeste
p179
I999
tp180
a.